
gpio_test.elf:     file format elf32-littleriscv


Disassembly of section .text:

00000000 <_start>:
       0:	00013197          	auipc	gp,0x13
       4:	91018193          	addi	gp,gp,-1776 # 12910 <__global_pointer$>
       8:	00020117          	auipc	sp,0x20
       c:	ff810113          	addi	sp,sp,-8 # 20000 <_memory_end>
      10:	00014e17          	auipc	t3,0x14
      14:	e38e0e13          	addi	t3,t3,-456 # 13e48 <CSRA_VERSION>
      18:	00014e97          	auipc	t4,0x14
      1c:	fc4e8e93          	addi	t4,t4,-60 # 13fdc <_bss_end>
      20:	00c0006f          	j	2c <clear_bss_end>

00000024 <clear_bss32>:
      24:	000e2023          	sw	zero,0(t3)
      28:	004e0e13          	addi	t3,t3,4

0000002c <clear_bss_end>:
      2c:	ffde6ce3          	bltu	t3,t4,24 <clear_bss32>

00000030 <main_entry>:
      30:	00000513          	li	a0,0
      34:	00000593          	li	a1,0
      38:	2b4000ef          	jal	2ec <main>
      3c:	00040513          	mv	a0,s0

00000040 <terminate>:
      40:	00100293          	li	t0,1
      44:	00013317          	auipc	t1,0x13
      48:	6ec30313          	addi	t1,t1,1772 # 13730 <tohost>
      4c:	00532023          	sw	t0,0(t1)
      50:	0000006f          	j	50 <terminate+0x10>

00000054 <delay_ms>:
      54:	fd010113          	addi	sp,sp,-48
      58:	02812623          	sw	s0,44(sp)
      5c:	03010413          	addi	s0,sp,48
      60:	fca42e23          	sw	a0,-36(s0)
      64:	fdc42703          	lw	a4,-36(s0)
      68:	000027b7          	lui	a5,0x2
      6c:	71078793          	addi	a5,a5,1808 # 2710 <_vfprintf_r+0x200>
      70:	02f707b3          	mul	a5,a4,a5
      74:	fef42623          	sw	a5,-20(s0)
      78:	00000013          	nop
      7c:	fec42783          	lw	a5,-20(s0)
      80:	fff78713          	addi	a4,a5,-1
      84:	fee42623          	sw	a4,-20(s0)
      88:	fe079ae3          	bnez	a5,7c <delay_ms+0x28>
      8c:	00000013          	nop
      90:	00000013          	nop
      94:	02c12403          	lw	s0,44(sp)
      98:	03010113          	addi	sp,sp,48
      9c:	00008067          	ret

000000a0 <led_set>:
      a0:	fe010113          	addi	sp,sp,-32
      a4:	00112e23          	sw	ra,28(sp)
      a8:	00812c23          	sw	s0,24(sp)
      ac:	02010413          	addi	s0,sp,32
      b0:	fea42623          	sw	a0,-20(s0)
      b4:	000147b7          	lui	a5,0x14
      b8:	de07a783          	lw	a5,-544(a5) # 13de0 <gpio_output_value>
      bc:	0ff7f713          	zext.b	a4,a5
      c0:	fec42783          	lw	a5,-20(s0)
      c4:	00879793          	slli	a5,a5,0x8
      c8:	00f76733          	or	a4,a4,a5
      cc:	000147b7          	lui	a5,0x14
      d0:	dee7a023          	sw	a4,-544(a5) # 13de0 <gpio_output_value>
      d4:	000147b7          	lui	a5,0x14
      d8:	de07a783          	lw	a5,-544(a5) # 13de0 <gpio_output_value>
      dc:	00078513          	mv	a0,a5
      e0:	5a0010ef          	jal	1680 <gpio_write>
      e4:	00000013          	nop
      e8:	01c12083          	lw	ra,28(sp)
      ec:	01812403          	lw	s0,24(sp)
      f0:	02010113          	addi	sp,sp,32
      f4:	00008067          	ret

000000f8 <led_clear>:
      f8:	ff010113          	addi	sp,sp,-16
      fc:	00112623          	sw	ra,12(sp)
     100:	00812423          	sw	s0,8(sp)
     104:	01010413          	addi	s0,sp,16
     108:	000147b7          	lui	a5,0x14
     10c:	de07a783          	lw	a5,-544(a5) # 13de0 <gpio_output_value>
     110:	0ff7f713          	zext.b	a4,a5
     114:	000147b7          	lui	a5,0x14
     118:	dee7a023          	sw	a4,-544(a5) # 13de0 <gpio_output_value>
     11c:	000147b7          	lui	a5,0x14
     120:	de07a783          	lw	a5,-544(a5) # 13de0 <gpio_output_value>
     124:	00078513          	mv	a0,a5
     128:	558010ef          	jal	1680 <gpio_write>
     12c:	00000013          	nop
     130:	00c12083          	lw	ra,12(sp)
     134:	00812403          	lw	s0,8(sp)
     138:	01010113          	addi	sp,sp,16
     13c:	00008067          	ret

00000140 <read_password_from_eeprom>:
     140:	fd010113          	addi	sp,sp,-48
     144:	02112623          	sw	ra,44(sp)
     148:	02812423          	sw	s0,40(sp)
     14c:	03010413          	addi	s0,sp,48
     150:	fca42e23          	sw	a0,-36(s0)
     154:	fe840793          	addi	a5,s0,-24
     158:	00400613          	li	a2,4
     15c:	00078593          	mv	a1,a5
     160:	00000513          	li	a0,0
     164:	058020ef          	jal	21bc <i2c_eeprom_read_bytes>
     168:	00050793          	mv	a5,a0
     16c:	00078663          	beqz	a5,178 <read_password_from_eeprom+0x38>
     170:	fff00793          	li	a5,-1
     174:	0480006f          	j	1bc <read_password_from_eeprom+0x7c>
     178:	fe042623          	sw	zero,-20(s0)
     17c:	0300006f          	j	1ac <read_password_from_eeprom+0x6c>
     180:	fec42783          	lw	a5,-20(s0)
     184:	fdc42703          	lw	a4,-36(s0)
     188:	00f707b3          	add	a5,a4,a5
     18c:	fec42703          	lw	a4,-20(s0)
     190:	ff070713          	addi	a4,a4,-16
     194:	00870733          	add	a4,a4,s0
     198:	ff874703          	lbu	a4,-8(a4)
     19c:	00e78023          	sb	a4,0(a5)
     1a0:	fec42783          	lw	a5,-20(s0)
     1a4:	00178793          	addi	a5,a5,1
     1a8:	fef42623          	sw	a5,-20(s0)
     1ac:	fec42703          	lw	a4,-20(s0)
     1b0:	00300793          	li	a5,3
     1b4:	fce7d6e3          	bge	a5,a4,180 <read_password_from_eeprom+0x40>
     1b8:	00000793          	li	a5,0
     1bc:	00078513          	mv	a0,a5
     1c0:	02c12083          	lw	ra,44(sp)
     1c4:	02812403          	lw	s0,40(sp)
     1c8:	03010113          	addi	sp,sp,48
     1cc:	00008067          	ret

000001d0 <save_password_to_eeprom>:
     1d0:	fd010113          	addi	sp,sp,-48
     1d4:	02112623          	sw	ra,44(sp)
     1d8:	02812423          	sw	s0,40(sp)
     1dc:	03010413          	addi	s0,sp,48
     1e0:	fca42e23          	sw	a0,-36(s0)
     1e4:	fe042623          	sw	zero,-20(s0)
     1e8:	0300006f          	j	218 <save_password_to_eeprom+0x48>
     1ec:	fec42783          	lw	a5,-20(s0)
     1f0:	fdc42703          	lw	a4,-36(s0)
     1f4:	00f707b3          	add	a5,a4,a5
     1f8:	0007c703          	lbu	a4,0(a5)
     1fc:	fec42783          	lw	a5,-20(s0)
     200:	ff078793          	addi	a5,a5,-16
     204:	008787b3          	add	a5,a5,s0
     208:	fee78c23          	sb	a4,-8(a5)
     20c:	fec42783          	lw	a5,-20(s0)
     210:	00178793          	addi	a5,a5,1
     214:	fef42623          	sw	a5,-20(s0)
     218:	fec42703          	lw	a4,-20(s0)
     21c:	00300793          	li	a5,3
     220:	fce7d6e3          	bge	a5,a4,1ec <save_password_to_eeprom+0x1c>
     224:	fe840793          	addi	a5,s0,-24
     228:	00400613          	li	a2,4
     22c:	00078593          	mv	a1,a5
     230:	00000513          	li	a0,0
     234:	048020ef          	jal	227c <i2c_eeprom_write_bytes>
     238:	00050793          	mv	a5,a0
     23c:	00078663          	beqz	a5,248 <save_password_to_eeprom+0x78>
     240:	fff00793          	li	a5,-1
     244:	0080006f          	j	24c <save_password_to_eeprom+0x7c>
     248:	00000793          	li	a5,0
     24c:	00078513          	mv	a0,a5
     250:	02c12083          	lw	ra,44(sp)
     254:	02812403          	lw	s0,40(sp)
     258:	03010113          	addi	sp,sp,48
     25c:	00008067          	ret

00000260 <is_password_set>:
     260:	fe010113          	addi	sp,sp,-32
     264:	00112e23          	sw	ra,28(sp)
     268:	00812c23          	sw	s0,24(sp)
     26c:	02010413          	addi	s0,sp,32
     270:	fe840793          	addi	a5,s0,-24
     274:	00400613          	li	a2,4
     278:	00078593          	mv	a1,a5
     27c:	00000513          	li	a0,0
     280:	73d010ef          	jal	21bc <i2c_eeprom_read_bytes>
     284:	00050793          	mv	a5,a0
     288:	00078663          	beqz	a5,294 <is_password_set+0x34>
     28c:	00000793          	li	a5,0
     290:	0480006f          	j	2d8 <is_password_set+0x78>
     294:	fe042623          	sw	zero,-20(s0)
     298:	0300006f          	j	2c8 <is_password_set+0x68>
     29c:	fec42783          	lw	a5,-20(s0)
     2a0:	ff078793          	addi	a5,a5,-16
     2a4:	008787b3          	add	a5,a5,s0
     2a8:	ff87c703          	lbu	a4,-8(a5)
     2ac:	0ff00793          	li	a5,255
     2b0:	00f70663          	beq	a4,a5,2bc <is_password_set+0x5c>
     2b4:	00100793          	li	a5,1
     2b8:	0200006f          	j	2d8 <is_password_set+0x78>
     2bc:	fec42783          	lw	a5,-20(s0)
     2c0:	00178793          	addi	a5,a5,1
     2c4:	fef42623          	sw	a5,-20(s0)
     2c8:	fec42703          	lw	a4,-20(s0)
     2cc:	00300793          	li	a5,3
     2d0:	fce7d6e3          	bge	a5,a4,29c <is_password_set+0x3c>
     2d4:	00000793          	li	a5,0
     2d8:	00078513          	mv	a0,a5
     2dc:	01c12083          	lw	ra,28(sp)
     2e0:	01812403          	lw	s0,24(sp)
     2e4:	02010113          	addi	sp,sp,32
     2e8:	00008067          	ret

000002ec <main>:
     2ec:	fb010113          	addi	sp,sp,-80
     2f0:	04112623          	sw	ra,76(sp)
     2f4:	04812423          	sw	s0,72(sp)
     2f8:	05010413          	addi	s0,sp,80
     2fc:	90020537          	lui	a0,0x90020
     300:	294010ef          	jal	1594 <uart_set_addr>
     304:	00100713          	li	a4,1
     308:	00000693          	li	a3,0
     30c:	00800613          	li	a2,8
     310:	0001c7b7          	lui	a5,0x1c
     314:	20078593          	addi	a1,a5,512 # 1c200 <_bss_end+0x8224>
     318:	05f5e7b7          	lui	a5,0x5f5e
     31c:	10078513          	addi	a0,a5,256 # 5f5e100 <_memory_end+0x5f3e100>
     320:	425000ef          	jal	f44 <uart_init>
     324:	90030537          	lui	a0,0x90030
     328:	6c8010ef          	jal	19f0 <gpio_set_addr>
     32c:	90030537          	lui	a0,0x90030
     330:	7a0010ef          	jal	1ad0 <keypad_init>
     334:	00000693          	li	a3,0
     338:	00000613          	li	a2,0
     33c:	00000593          	li	a1,0
     340:	000107b7          	lui	a5,0x10
     344:	fff78513          	addi	a0,a5,-1 # ffff <__multf3+0xc07>
     348:	36c010ef          	jal	16b4 <gpio_init>
     34c:	00f00513          	li	a0,15
     350:	330010ef          	jal	1680 <gpio_write>
     354:	da5ff0ef          	jal	f8 <led_clear>
     358:	00018513          	mv	a0,gp
     35c:	5bc000ef          	jal	918 <my_printf>
     360:	06400513          	li	a0,100
     364:	cf1ff0ef          	jal	54 <delay_ms>
     368:	90040537          	lui	a0,0x90040
     36c:	5a5010ef          	jal	2110 <i2c_set_addr>
     370:	01418513          	addi	a0,gp,20 # 12924 <__global_pointer$+0x14>
     374:	5a4000ef          	jal	918 <my_printf>
     378:	06400513          	li	a0,100
     37c:	cd9ff0ef          	jal	54 <delay_ms>
     380:	fc042623          	sw	zero,-52(s0)
     384:	eddff0ef          	jal	260 <is_password_set>
     388:	00050793          	mv	a5,a0
     38c:	06078463          	beqz	a5,3f4 <main+0x108>
     390:	fbc40793          	addi	a5,s0,-68
     394:	00078513          	mv	a0,a5
     398:	da9ff0ef          	jal	140 <read_password_from_eeprom>
     39c:	00050793          	mv	a5,a0
     3a0:	02079863          	bnez	a5,3d0 <main+0xe4>
     3a4:	00100793          	li	a5,1
     3a8:	fcf42623          	sw	a5,-52(s0)
     3ac:	00200793          	li	a5,2
     3b0:	fef42623          	sw	a5,-20(s0)
     3b4:	02818513          	addi	a0,gp,40 # 12938 <__global_pointer$+0x28>
     3b8:	560000ef          	jal	918 <my_printf>
     3bc:	04018513          	addi	a0,gp,64 # 12950 <__global_pointer$+0x40>
     3c0:	558000ef          	jal	918 <my_printf>
     3c4:	06418513          	addi	a0,gp,100 # 12974 <__global_pointer$+0x64>
     3c8:	550000ef          	jal	918 <my_printf>
     3cc:	0480006f          	j	414 <main+0x128>
     3d0:	fc042623          	sw	zero,-52(s0)
     3d4:	fe042623          	sw	zero,-20(s0)
     3d8:	0a418513          	addi	a0,gp,164 # 129b4 <__global_pointer$+0xa4>
     3dc:	53c000ef          	jal	918 <my_printf>
     3e0:	0bc18513          	addi	a0,gp,188 # 129cc <__global_pointer$+0xbc>
     3e4:	534000ef          	jal	918 <my_printf>
     3e8:	0e818513          	addi	a0,gp,232 # 129f8 <__global_pointer$+0xe8>
     3ec:	52c000ef          	jal	918 <my_printf>
     3f0:	0240006f          	j	414 <main+0x128>
     3f4:	fc042623          	sw	zero,-52(s0)
     3f8:	fe042623          	sw	zero,-20(s0)
     3fc:	0a418513          	addi	a0,gp,164 # 129b4 <__global_pointer$+0xa4>
     400:	518000ef          	jal	918 <my_printf>
     404:	0bc18513          	addi	a0,gp,188 # 129cc <__global_pointer$+0xbc>
     408:	510000ef          	jal	918 <my_printf>
     40c:	0e818513          	addi	a0,gp,232 # 129f8 <__global_pointer$+0xe8>
     410:	508000ef          	jal	918 <my_printf>
     414:	fe0405a3          	sb	zero,-21(s0)
     418:	fe040523          	sb	zero,-22(s0)
     41c:	fe042223          	sw	zero,-28(s0)
     420:	fe042023          	sw	zero,-32(s0)
     424:	fc040fa3          	sb	zero,-33(s0)
     428:	00500793          	li	a5,5
     42c:	fcf42423          	sw	a5,-56(s0)
     430:	00a00793          	li	a5,10
     434:	fcf42223          	sw	a5,-60(s0)
     438:	011010ef          	jal	1c48 <keypad_get_char>
     43c:	00050793          	mv	a5,a0
     440:	fcf401a3          	sb	a5,-61(s0)
     444:	fc344783          	lbu	a5,-61(s0)
     448:	38078263          	beqz	a5,7cc <main+0x4e0>
     44c:	fc344703          	lbu	a4,-61(s0)
     450:	fea44783          	lbu	a5,-22(s0)
     454:	34f71e63          	bne	a4,a5,7b0 <main+0x4c4>
     458:	fe442783          	lw	a5,-28(s0)
     45c:	00178793          	addi	a5,a5,1
     460:	fef42223          	sw	a5,-28(s0)
     464:	fe042023          	sw	zero,-32(s0)
     468:	fe442703          	lw	a4,-28(s0)
     46c:	fc842783          	lw	a5,-56(s0)
     470:	38f76663          	bltu	a4,a5,7fc <main+0x510>
     474:	fdf44783          	lbu	a5,-33(s0)
     478:	38079263          	bnez	a5,7fc <main+0x510>
     47c:	00100793          	li	a5,1
     480:	fcf40fa3          	sb	a5,-33(s0)
     484:	fc344703          	lbu	a4,-61(s0)
     488:	04100793          	li	a5,65
     48c:	04f71063          	bne	a4,a5,4cc <main+0x1e0>
     490:	fec42783          	lw	a5,-20(s0)
     494:	00078863          	beqz	a5,4a4 <main+0x1b8>
     498:	fec42703          	lw	a4,-20(s0)
     49c:	00200793          	li	a5,2
     4a0:	34f71e63          	bne	a4,a5,7fc <main+0x510>
     4a4:	00100793          	li	a5,1
     4a8:	fef42623          	sw	a5,-20(s0)
     4ac:	fe0405a3          	sb	zero,-21(s0)
     4b0:	12418513          	addi	a0,gp,292 # 12a34 <__global_pointer$+0x124>
     4b4:	464000ef          	jal	918 <my_printf>
     4b8:	14418513          	addi	a0,gp,324 # 12a54 <__global_pointer$+0x144>
     4bc:	45c000ef          	jal	918 <my_printf>
     4c0:	16c18513          	addi	a0,gp,364 # 12a7c <__global_pointer$+0x16c>
     4c4:	454000ef          	jal	918 <my_printf>
     4c8:	3340006f          	j	7fc <main+0x510>
     4cc:	fc344703          	lbu	a4,-61(s0)
     4d0:	04200793          	li	a5,66
     4d4:	02f71c63          	bne	a4,a5,50c <main+0x220>
     4d8:	fec42703          	lw	a4,-20(s0)
     4dc:	00100793          	li	a5,1
     4e0:	30f71e63          	bne	a4,a5,7fc <main+0x510>
     4e4:	00200793          	li	a5,2
     4e8:	fef42623          	sw	a5,-20(s0)
     4ec:	fe0405a3          	sb	zero,-21(s0)
     4f0:	02818513          	addi	a0,gp,40 # 12938 <__global_pointer$+0x28>
     4f4:	424000ef          	jal	918 <my_printf>
     4f8:	04018513          	addi	a0,gp,64 # 12950 <__global_pointer$+0x40>
     4fc:	41c000ef          	jal	918 <my_printf>
     500:	18018513          	addi	a0,gp,384 # 12a90 <__global_pointer$+0x180>
     504:	414000ef          	jal	918 <my_printf>
     508:	2f40006f          	j	7fc <main+0x510>
     50c:	fc344703          	lbu	a4,-61(s0)
     510:	04400793          	li	a5,68
     514:	22f71a63          	bne	a4,a5,748 <main+0x45c>
     518:	fec42703          	lw	a4,-20(s0)
     51c:	00100793          	li	a5,1
     520:	0ef71663          	bne	a4,a5,60c <main+0x320>
     524:	feb44703          	lbu	a4,-21(s0)
     528:	00400793          	li	a5,4
     52c:	0af71a63          	bne	a4,a5,5e0 <main+0x2f4>
     530:	fb840793          	addi	a5,s0,-72
     534:	00078513          	mv	a0,a5
     538:	c99ff0ef          	jal	1d0 <save_password_to_eeprom>
     53c:	00050793          	mv	a5,a0
     540:	06079a63          	bnez	a5,5b4 <main+0x2c8>
     544:	fc042c23          	sw	zero,-40(s0)
     548:	0300006f          	j	578 <main+0x28c>
     54c:	fd842783          	lw	a5,-40(s0)
     550:	ff078793          	addi	a5,a5,-16
     554:	008787b3          	add	a5,a5,s0
     558:	fc87c703          	lbu	a4,-56(a5)
     55c:	fd842783          	lw	a5,-40(s0)
     560:	ff078793          	addi	a5,a5,-16
     564:	008787b3          	add	a5,a5,s0
     568:	fce78623          	sb	a4,-52(a5)
     56c:	fd842783          	lw	a5,-40(s0)
     570:	00178793          	addi	a5,a5,1
     574:	fcf42c23          	sw	a5,-40(s0)
     578:	fd842703          	lw	a4,-40(s0)
     57c:	00300793          	li	a5,3
     580:	fce7d6e3          	bge	a5,a4,54c <main+0x260>
     584:	1a018513          	addi	a0,gp,416 # 12ab0 <__global_pointer$+0x1a0>
     588:	390000ef          	jal	918 <my_printf>
     58c:	00200793          	li	a5,2
     590:	fef42623          	sw	a5,-20(s0)
     594:	fe0405a3          	sb	zero,-21(s0)
     598:	1c418513          	addi	a0,gp,452 # 12ad4 <__global_pointer$+0x1c4>
     59c:	37c000ef          	jal	918 <my_printf>
     5a0:	04018513          	addi	a0,gp,64 # 12950 <__global_pointer$+0x40>
     5a4:	374000ef          	jal	918 <my_printf>
     5a8:	18018513          	addi	a0,gp,384 # 12a90 <__global_pointer$+0x180>
     5ac:	36c000ef          	jal	918 <my_printf>
     5b0:	24c0006f          	j	7fc <main+0x510>
     5b4:	1d818513          	addi	a0,gp,472 # 12ae8 <__global_pointer$+0x1d8>
     5b8:	360000ef          	jal	918 <my_printf>
     5bc:	fe042623          	sw	zero,-20(s0)
     5c0:	fe0405a3          	sb	zero,-21(s0)
     5c4:	1fc18513          	addi	a0,gp,508 # 12b0c <__global_pointer$+0x1fc>
     5c8:	350000ef          	jal	918 <my_printf>
     5cc:	0bc18513          	addi	a0,gp,188 # 129cc <__global_pointer$+0xbc>
     5d0:	348000ef          	jal	918 <my_printf>
     5d4:	0e818513          	addi	a0,gp,232 # 129f8 <__global_pointer$+0xe8>
     5d8:	340000ef          	jal	918 <my_printf>
     5dc:	2200006f          	j	7fc <main+0x510>
     5e0:	21018513          	addi	a0,gp,528 # 12b20 <__global_pointer$+0x210>
     5e4:	334000ef          	jal	918 <my_printf>
     5e8:	fe0405a3          	sb	zero,-21(s0)
     5ec:	fe042623          	sw	zero,-20(s0)
     5f0:	1fc18513          	addi	a0,gp,508 # 12b0c <__global_pointer$+0x1fc>
     5f4:	324000ef          	jal	918 <my_printf>
     5f8:	0bc18513          	addi	a0,gp,188 # 129cc <__global_pointer$+0xbc>
     5fc:	31c000ef          	jal	918 <my_printf>
     600:	0e818513          	addi	a0,gp,232 # 129f8 <__global_pointer$+0xe8>
     604:	314000ef          	jal	918 <my_printf>
     608:	1f40006f          	j	7fc <main+0x510>
     60c:	fec42703          	lw	a4,-20(s0)
     610:	00200793          	li	a5,2
     614:	1ef71463          	bne	a4,a5,7fc <main+0x510>
     618:	feb44703          	lbu	a4,-21(s0)
     61c:	00400793          	li	a5,4
     620:	0ef71663          	bne	a4,a5,70c <main+0x420>
     624:	00100793          	li	a5,1
     628:	fcf42a23          	sw	a5,-44(s0)
     62c:	fc042823          	sw	zero,-48(s0)
     630:	03c0006f          	j	66c <main+0x380>
     634:	fd042783          	lw	a5,-48(s0)
     638:	ff078793          	addi	a5,a5,-16
     63c:	008787b3          	add	a5,a5,s0
     640:	fc87c703          	lbu	a4,-56(a5)
     644:	fd042783          	lw	a5,-48(s0)
     648:	ff078793          	addi	a5,a5,-16
     64c:	008787b3          	add	a5,a5,s0
     650:	fcc7c783          	lbu	a5,-52(a5)
     654:	00f70663          	beq	a4,a5,660 <main+0x374>
     658:	fc042a23          	sw	zero,-44(s0)
     65c:	01c0006f          	j	678 <main+0x38c>
     660:	fd042783          	lw	a5,-48(s0)
     664:	00178793          	addi	a5,a5,1
     668:	fcf42823          	sw	a5,-48(s0)
     66c:	fd042703          	lw	a4,-48(s0)
     670:	00300793          	li	a5,3
     674:	fce7d0e3          	bge	a5,a4,634 <main+0x348>
     678:	fd442783          	lw	a5,-44(s0)
     67c:	04078a63          	beqz	a5,6d0 <main+0x3e4>
     680:	00300793          	li	a5,3
     684:	fef42623          	sw	a5,-20(s0)
     688:	00100513          	li	a0,1
     68c:	a15ff0ef          	jal	a0 <led_set>
     690:	23018513          	addi	a0,gp,560 # 12b40 <__global_pointer$+0x230>
     694:	284000ef          	jal	918 <my_printf>
     698:	000017b7          	lui	a5,0x1
     69c:	bb878513          	addi	a0,a5,-1096 # bb8 <my_printflt+0x13c>
     6a0:	9b5ff0ef          	jal	54 <delay_ms>
     6a4:	a55ff0ef          	jal	f8 <led_clear>
     6a8:	00200793          	li	a5,2
     6ac:	fef42623          	sw	a5,-20(s0)
     6b0:	fe0405a3          	sb	zero,-21(s0)
     6b4:	1c418513          	addi	a0,gp,452 # 12ad4 <__global_pointer$+0x1c4>
     6b8:	260000ef          	jal	918 <my_printf>
     6bc:	04018513          	addi	a0,gp,64 # 12950 <__global_pointer$+0x40>
     6c0:	258000ef          	jal	918 <my_printf>
     6c4:	18018513          	addi	a0,gp,384 # 12a90 <__global_pointer$+0x180>
     6c8:	250000ef          	jal	918 <my_printf>
     6cc:	1300006f          	j	7fc <main+0x510>
     6d0:	00200513          	li	a0,2
     6d4:	9cdff0ef          	jal	a0 <led_set>
     6d8:	24818513          	addi	a0,gp,584 # 12b58 <__global_pointer$+0x248>
     6dc:	23c000ef          	jal	918 <my_printf>
     6e0:	3e800513          	li	a0,1000
     6e4:	971ff0ef          	jal	54 <delay_ms>
     6e8:	a11ff0ef          	jal	f8 <led_clear>
     6ec:	fe0405a3          	sb	zero,-21(s0)
     6f0:	1c418513          	addi	a0,gp,452 # 12ad4 <__global_pointer$+0x1c4>
     6f4:	224000ef          	jal	918 <my_printf>
     6f8:	04018513          	addi	a0,gp,64 # 12950 <__global_pointer$+0x40>
     6fc:	21c000ef          	jal	918 <my_printf>
     700:	18018513          	addi	a0,gp,384 # 12a90 <__global_pointer$+0x180>
     704:	214000ef          	jal	918 <my_printf>
     708:	0f40006f          	j	7fc <main+0x510>
     70c:	00200513          	li	a0,2
     710:	991ff0ef          	jal	a0 <led_set>
     714:	24818513          	addi	a0,gp,584 # 12b58 <__global_pointer$+0x248>
     718:	200000ef          	jal	918 <my_printf>
     71c:	3e800513          	li	a0,1000
     720:	935ff0ef          	jal	54 <delay_ms>
     724:	9d5ff0ef          	jal	f8 <led_clear>
     728:	fe0405a3          	sb	zero,-21(s0)
     72c:	1c418513          	addi	a0,gp,452 # 12ad4 <__global_pointer$+0x1c4>
     730:	1e8000ef          	jal	918 <my_printf>
     734:	04018513          	addi	a0,gp,64 # 12950 <__global_pointer$+0x40>
     738:	1e0000ef          	jal	918 <my_printf>
     73c:	18018513          	addi	a0,gp,384 # 12a90 <__global_pointer$+0x180>
     740:	1d8000ef          	jal	918 <my_printf>
     744:	0b80006f          	j	7fc <main+0x510>
     748:	fc344703          	lbu	a4,-61(s0)
     74c:	02f00793          	li	a5,47
     750:	0ae7f663          	bgeu	a5,a4,7fc <main+0x510>
     754:	fc344703          	lbu	a4,-61(s0)
     758:	03900793          	li	a5,57
     75c:	0ae7e063          	bltu	a5,a4,7fc <main+0x510>
     760:	fec42703          	lw	a4,-20(s0)
     764:	00100793          	li	a5,1
     768:	00f70863          	beq	a4,a5,778 <main+0x48c>
     76c:	fec42703          	lw	a4,-20(s0)
     770:	00200793          	li	a5,2
     774:	08f71463          	bne	a4,a5,7fc <main+0x510>
     778:	feb44703          	lbu	a4,-21(s0)
     77c:	00300793          	li	a5,3
     780:	06e7ee63          	bltu	a5,a4,7fc <main+0x510>
     784:	feb44783          	lbu	a5,-21(s0)
     788:	ff078793          	addi	a5,a5,-16
     78c:	008787b3          	add	a5,a5,s0
     790:	fc344703          	lbu	a4,-61(s0)
     794:	fce78423          	sb	a4,-56(a5)
     798:	feb44783          	lbu	a5,-21(s0)
     79c:	00178793          	addi	a5,a5,1
     7a0:	fef405a3          	sb	a5,-21(s0)
     7a4:	02a00513          	li	a0,42
     7a8:	2b9000ef          	jal	1260 <uart_put_char>
     7ac:	0500006f          	j	7fc <main+0x510>
     7b0:	fc344783          	lbu	a5,-61(s0)
     7b4:	fef40523          	sb	a5,-22(s0)
     7b8:	00100793          	li	a5,1
     7bc:	fef42223          	sw	a5,-28(s0)
     7c0:	fe042023          	sw	zero,-32(s0)
     7c4:	fc040fa3          	sb	zero,-33(s0)
     7c8:	0340006f          	j	7fc <main+0x510>
     7cc:	fea44783          	lbu	a5,-22(s0)
     7d0:	02078663          	beqz	a5,7fc <main+0x510>
     7d4:	fe042783          	lw	a5,-32(s0)
     7d8:	00178793          	addi	a5,a5,1
     7dc:	fef42023          	sw	a5,-32(s0)
     7e0:	fe042703          	lw	a4,-32(s0)
     7e4:	fc442783          	lw	a5,-60(s0)
     7e8:	00f76a63          	bltu	a4,a5,7fc <main+0x510>
     7ec:	fe040523          	sb	zero,-22(s0)
     7f0:	fe042223          	sw	zero,-28(s0)
     7f4:	fe042023          	sw	zero,-32(s0)
     7f8:	fc040fa3          	sb	zero,-33(s0)
     7fc:	00100513          	li	a0,1
     800:	855ff0ef          	jal	54 <delay_ms>
     804:	c35ff06f          	j	438 <main+0x14c>

00000808 <my_putc>:
     808:	fe010113          	addi	sp,sp,-32
     80c:	00112e23          	sw	ra,28(sp)
     810:	00812c23          	sw	s0,24(sp)
     814:	02010413          	addi	s0,sp,32
     818:	fea42623          	sw	a0,-20(s0)
     81c:	feb42423          	sw	a1,-24(s0)
     820:	fec42783          	lw	a5,-20(s0)
     824:	0ff7f793          	zext.b	a5,a5
     828:	00078513          	mv	a0,a5
     82c:	235000ef          	jal	1260 <uart_put_char>
     830:	00050793          	mv	a5,a0
     834:	00078513          	mv	a0,a5
     838:	01c12083          	lw	ra,28(sp)
     83c:	01812403          	lw	s0,24(sp)
     840:	02010113          	addi	sp,sp,32
     844:	00008067          	ret

00000848 <my_putchar>:
     848:	fe010113          	addi	sp,sp,-32
     84c:	00112e23          	sw	ra,28(sp)
     850:	00812c23          	sw	s0,24(sp)
     854:	02010413          	addi	s0,sp,32
     858:	fea42623          	sw	a0,-20(s0)
     85c:	fec42783          	lw	a5,-20(s0)
     860:	0ff7f793          	zext.b	a5,a5
     864:	00078513          	mv	a0,a5
     868:	1f9000ef          	jal	1260 <uart_put_char>
     86c:	00050793          	mv	a5,a0
     870:	00078513          	mv	a0,a5
     874:	01c12083          	lw	ra,28(sp)
     878:	01812403          	lw	s0,24(sp)
     87c:	02010113          	addi	sp,sp,32
     880:	00008067          	ret

00000884 <my_getc>:
     884:	fe010113          	addi	sp,sp,-32
     888:	00112e23          	sw	ra,28(sp)
     88c:	00812c23          	sw	s0,24(sp)
     890:	02010413          	addi	s0,sp,32
     894:	fea42623          	sw	a0,-20(s0)
     898:	185000ef          	jal	121c <uart_get_char>
     89c:	00050793          	mv	a5,a0
     8a0:	00078513          	mv	a0,a5
     8a4:	01c12083          	lw	ra,28(sp)
     8a8:	01812403          	lw	s0,24(sp)
     8ac:	02010113          	addi	sp,sp,32
     8b0:	00008067          	ret

000008b4 <my_getchar>:
     8b4:	ff010113          	addi	sp,sp,-16
     8b8:	00112623          	sw	ra,12(sp)
     8bc:	00812423          	sw	s0,8(sp)
     8c0:	01010413          	addi	s0,sp,16
     8c4:	159000ef          	jal	121c <uart_get_char>
     8c8:	00050793          	mv	a5,a0
     8cc:	00078513          	mv	a0,a5
     8d0:	00c12083          	lw	ra,12(sp)
     8d4:	00812403          	lw	s0,8(sp)
     8d8:	01010113          	addi	sp,sp,16
     8dc:	00008067          	ret

000008e0 <my_puts>:
     8e0:	fd010113          	addi	sp,sp,-48
     8e4:	02112623          	sw	ra,44(sp)
     8e8:	02812423          	sw	s0,40(sp)
     8ec:	03010413          	addi	s0,sp,48
     8f0:	fca42e23          	sw	a0,-36(s0)
     8f4:	fdc42503          	lw	a0,-36(s0)
     8f8:	1d1000ef          	jal	12c8 <uart_put_string>
     8fc:	fea42623          	sw	a0,-20(s0)
     900:	fec42783          	lw	a5,-20(s0)
     904:	00078513          	mv	a0,a5
     908:	02c12083          	lw	ra,44(sp)
     90c:	02812403          	lw	s0,40(sp)
     910:	03010113          	addi	sp,sp,48
     914:	00008067          	ret

00000918 <my_printf>:
     918:	fb010113          	addi	sp,sp,-80
     91c:	02112623          	sw	ra,44(sp)
     920:	02812423          	sw	s0,40(sp)
     924:	03010413          	addi	s0,sp,48
     928:	fca42e23          	sw	a0,-36(s0)
     92c:	00b42223          	sw	a1,4(s0)
     930:	00c42423          	sw	a2,8(s0)
     934:	00d42623          	sw	a3,12(s0)
     938:	00e42823          	sw	a4,16(s0)
     93c:	00f42a23          	sw	a5,20(s0)
     940:	01042c23          	sw	a6,24(s0)
     944:	01142e23          	sw	a7,28(s0)
     948:	02040793          	addi	a5,s0,32
     94c:	fcf42c23          	sw	a5,-40(s0)
     950:	fd842783          	lw	a5,-40(s0)
     954:	fe478793          	addi	a5,a5,-28
     958:	fef42423          	sw	a5,-24(s0)
     95c:	fe842783          	lw	a5,-24(s0)
     960:	00078593          	mv	a1,a5
     964:	fdc42503          	lw	a0,-36(s0)
     968:	28c000ef          	jal	bf4 <my_vprintf>
     96c:	fea42623          	sw	a0,-20(s0)
     970:	fec42783          	lw	a5,-20(s0)
     974:	00078513          	mv	a0,a5
     978:	02c12083          	lw	ra,44(sp)
     97c:	02812403          	lw	s0,40(sp)
     980:	05010113          	addi	sp,sp,80
     984:	00008067          	ret

00000988 <my_printn>:
     988:	fd010113          	addi	sp,sp,-48
     98c:	02112623          	sw	ra,44(sp)
     990:	02812423          	sw	s0,40(sp)
     994:	03010413          	addi	s0,sp,48
     998:	fca42e23          	sw	a0,-36(s0)
     99c:	fcb42c23          	sw	a1,-40(s0)
     9a0:	fcc42a23          	sw	a2,-44(s0)
     9a4:	fe042623          	sw	zero,-20(s0)
     9a8:	fd842703          	lw	a4,-40(s0)
     9ac:	00a00793          	li	a5,10
     9b0:	02f71863          	bne	a4,a5,9e0 <my_printn+0x58>
     9b4:	fdc42783          	lw	a5,-36(s0)
     9b8:	0207d463          	bgez	a5,9e0 <my_printn+0x58>
     9bc:	02d00513          	li	a0,45
     9c0:	0a1000ef          	jal	1260 <uart_put_char>
     9c4:	00050713          	mv	a4,a0
     9c8:	fec42783          	lw	a5,-20(s0)
     9cc:	00f707b3          	add	a5,a4,a5
     9d0:	fef42623          	sw	a5,-20(s0)
     9d4:	fdc42783          	lw	a5,-36(s0)
     9d8:	40f007b3          	neg	a5,a5
     9dc:	fcf42e23          	sw	a5,-36(s0)
     9e0:	fd842783          	lw	a5,-40(s0)
     9e4:	fdc42703          	lw	a4,-36(s0)
     9e8:	02f757b3          	divu	a5,a4,a5
     9ec:	fef42423          	sw	a5,-24(s0)
     9f0:	fe842783          	lw	a5,-24(s0)
     9f4:	00079863          	bnez	a5,a04 <my_printn+0x7c>
     9f8:	fd442703          	lw	a4,-44(s0)
     9fc:	00100793          	li	a5,1
     a00:	02e7d863          	bge	a5,a4,a30 <my_printn+0xa8>
     a04:	fd442783          	lw	a5,-44(s0)
     a08:	fff78793          	addi	a5,a5,-1
     a0c:	fcf42a23          	sw	a5,-44(s0)
     a10:	fd442603          	lw	a2,-44(s0)
     a14:	fd842583          	lw	a1,-40(s0)
     a18:	fe842503          	lw	a0,-24(s0)
     a1c:	f6dff0ef          	jal	988 <my_printn>
     a20:	00050713          	mv	a4,a0
     a24:	fec42783          	lw	a5,-20(s0)
     a28:	00e787b3          	add	a5,a5,a4
     a2c:	fef42623          	sw	a5,-20(s0)
     a30:	fd842783          	lw	a5,-40(s0)
     a34:	fdc42703          	lw	a4,-36(s0)
     a38:	02f777b3          	remu	a5,a4,a5
     a3c:	00078713          	mv	a4,a5
     a40:	26018793          	addi	a5,gp,608 # 12b70 <__global_pointer$+0x260>
     a44:	00e787b3          	add	a5,a5,a4
     a48:	0007c783          	lbu	a5,0(a5)
     a4c:	00078513          	mv	a0,a5
     a50:	011000ef          	jal	1260 <uart_put_char>
     a54:	00050713          	mv	a4,a0
     a58:	fec42783          	lw	a5,-20(s0)
     a5c:	00f707b3          	add	a5,a4,a5
     a60:	fef42623          	sw	a5,-20(s0)
     a64:	fec42783          	lw	a5,-20(s0)
     a68:	00078513          	mv	a0,a5
     a6c:	02c12083          	lw	ra,44(sp)
     a70:	02812403          	lw	s0,40(sp)
     a74:	03010113          	addi	sp,sp,48
     a78:	00008067          	ret

00000a7c <my_printflt>:
     a7c:	fd010113          	addi	sp,sp,-48
     a80:	02112623          	sw	ra,44(sp)
     a84:	02812423          	sw	s0,40(sp)
     a88:	03010413          	addi	s0,sp,48
     a8c:	fca42e23          	sw	a0,-36(s0)
     a90:	fcb42c23          	sw	a1,-40(s0)
     a94:	fe042423          	sw	zero,-24(s0)
     a98:	00000593          	li	a1,0
     a9c:	fdc42503          	lw	a0,-36(s0)
     aa0:	12c110ef          	jal	11bcc <__lesf2>
     aa4:	00050793          	mv	a5,a0
     aa8:	0207d663          	bgez	a5,ad4 <my_printflt+0x58>
     aac:	02d00513          	li	a0,45
     ab0:	7b0000ef          	jal	1260 <uart_put_char>
     ab4:	00050713          	mv	a4,a0
     ab8:	fe842783          	lw	a5,-24(s0)
     abc:	00f707b3          	add	a5,a4,a5
     ac0:	fef42423          	sw	a5,-24(s0)
     ac4:	fdc42703          	lw	a4,-36(s0)
     ac8:	800007b7          	lui	a5,0x80000
     acc:	00f747b3          	xor	a5,a4,a5
     ad0:	fcf42e23          	sw	a5,-36(s0)
     ad4:	fdc42503          	lw	a0,-36(s0)
     ad8:	0ed110ef          	jal	123c4 <__fixsfsi>
     adc:	00050793          	mv	a5,a0
     ae0:	fef42223          	sw	a5,-28(s0)
     ae4:	fe442783          	lw	a5,-28(s0)
     ae8:	fd842603          	lw	a2,-40(s0)
     aec:	00a00593          	li	a1,10
     af0:	00078513          	mv	a0,a5
     af4:	e95ff0ef          	jal	988 <my_printn>
     af8:	00050713          	mv	a4,a0
     afc:	fe842783          	lw	a5,-24(s0)
     b00:	00e787b3          	add	a5,a5,a4
     b04:	fef42423          	sw	a5,-24(s0)
     b08:	02e00513          	li	a0,46
     b0c:	754000ef          	jal	1260 <uart_put_char>
     b10:	00050713          	mv	a4,a0
     b14:	fe842783          	lw	a5,-24(s0)
     b18:	00f707b3          	add	a5,a4,a5
     b1c:	fef42423          	sw	a5,-24(s0)
     b20:	fe442503          	lw	a0,-28(s0)
     b24:	111110ef          	jal	12434 <__floatsisf>
     b28:	00050793          	mv	a5,a0
     b2c:	00078593          	mv	a1,a5
     b30:	fdc42503          	lw	a0,-36(s0)
     b34:	460110ef          	jal	11f94 <__subsf3>
     b38:	00050793          	mv	a5,a0
     b3c:	fcf42e23          	sw	a5,-36(s0)
     b40:	fe042623          	sw	zero,-20(s0)
     b44:	2cc1a583          	lw	a1,716(gp) # 12bdc <__global_pointer$+0x2cc>
     b48:	fdc42503          	lw	a0,-36(s0)
     b4c:	12c110ef          	jal	11c78 <__mulsf3>
     b50:	00050793          	mv	a5,a0
     b54:	fcf42e23          	sw	a5,-36(s0)
     b58:	fdc42503          	lw	a0,-36(s0)
     b5c:	069110ef          	jal	123c4 <__fixsfsi>
     b60:	00050793          	mv	a5,a0
     b64:	fef42223          	sw	a5,-28(s0)
     b68:	fe442783          	lw	a5,-28(s0)
     b6c:	0ff7f793          	zext.b	a5,a5
     b70:	03078793          	addi	a5,a5,48 # 80000030 <_memory_end+0x7ffe0030>
     b74:	0ff7f793          	zext.b	a5,a5
     b78:	00078513          	mv	a0,a5
     b7c:	6e4000ef          	jal	1260 <uart_put_char>
     b80:	00050713          	mv	a4,a0
     b84:	fe842783          	lw	a5,-24(s0)
     b88:	00f707b3          	add	a5,a4,a5
     b8c:	fef42423          	sw	a5,-24(s0)
     b90:	fe442503          	lw	a0,-28(s0)
     b94:	0a1110ef          	jal	12434 <__floatsisf>
     b98:	00050793          	mv	a5,a0
     b9c:	00078593          	mv	a1,a5
     ba0:	fdc42503          	lw	a0,-36(s0)
     ba4:	3f0110ef          	jal	11f94 <__subsf3>
     ba8:	00050793          	mv	a5,a0
     bac:	fcf42e23          	sw	a5,-36(s0)
     bb0:	fec42783          	lw	a5,-20(s0)
     bb4:	00178793          	addi	a5,a5,1
     bb8:	fef42623          	sw	a5,-20(s0)
     bbc:	00000593          	li	a1,0
     bc0:	fdc42503          	lw	a0,-36(s0)
     bc4:	7a1100ef          	jal	11b64 <__eqsf2>
     bc8:	00050793          	mv	a5,a0
     bcc:	00078863          	beqz	a5,bdc <my_printflt+0x160>
     bd0:	fec42703          	lw	a4,-20(s0)
     bd4:	00500793          	li	a5,5
     bd8:	f6e7d6e3          	bge	a5,a4,b44 <my_printflt+0xc8>
     bdc:	fe842783          	lw	a5,-24(s0)
     be0:	00078513          	mv	a0,a5
     be4:	02c12083          	lw	ra,44(sp)
     be8:	02812403          	lw	s0,40(sp)
     bec:	03010113          	addi	sp,sp,48
     bf0:	00008067          	ret

00000bf4 <my_vprintf>:
     bf4:	fc010113          	addi	sp,sp,-64
     bf8:	02112e23          	sw	ra,60(sp)
     bfc:	02812c23          	sw	s0,56(sp)
     c00:	04010413          	addi	s0,sp,64
     c04:	fca42623          	sw	a0,-52(s0)
     c08:	fcb42423          	sw	a1,-56(s0)
     c0c:	fe042023          	sw	zero,-32(s0)
     c10:	3000006f          	j	f10 <my_vprintf+0x31c>
     c14:	fe842703          	lw	a4,-24(s0)
     c18:	02500793          	li	a5,37
     c1c:	2cf71063          	bne	a4,a5,edc <my_vprintf+0x2e8>
     c20:	fcc42783          	lw	a5,-52(s0)
     c24:	0007c783          	lbu	a5,0(a5)
     c28:	fef42423          	sw	a5,-24(s0)
     c2c:	fe042623          	sw	zero,-20(s0)
     c30:	0440006f          	j	c74 <my_vprintf+0x80>
     c34:	fec42703          	lw	a4,-20(s0)
     c38:	00070793          	mv	a5,a4
     c3c:	00279793          	slli	a5,a5,0x2
     c40:	00e787b3          	add	a5,a5,a4
     c44:	00179793          	slli	a5,a5,0x1
     c48:	00078713          	mv	a4,a5
     c4c:	fe842783          	lw	a5,-24(s0)
     c50:	00f707b3          	add	a5,a4,a5
     c54:	fd078793          	addi	a5,a5,-48
     c58:	fef42623          	sw	a5,-20(s0)
     c5c:	fcc42783          	lw	a5,-52(s0)
     c60:	00178793          	addi	a5,a5,1
     c64:	fcf42623          	sw	a5,-52(s0)
     c68:	fcc42783          	lw	a5,-52(s0)
     c6c:	0007c783          	lbu	a5,0(a5)
     c70:	fef42423          	sw	a5,-24(s0)
     c74:	fe842703          	lw	a4,-24(s0)
     c78:	02f00793          	li	a5,47
     c7c:	00e7d863          	bge	a5,a4,c8c <my_vprintf+0x98>
     c80:	fe842703          	lw	a4,-24(s0)
     c84:	03900793          	li	a5,57
     c88:	fae7d6e3          	bge	a5,a4,c34 <my_vprintf+0x40>
     c8c:	fcc42783          	lw	a5,-52(s0)
     c90:	00178713          	addi	a4,a5,1
     c94:	fce42623          	sw	a4,-52(s0)
     c98:	0007c783          	lbu	a5,0(a5)
     c9c:	fef42423          	sw	a5,-24(s0)
     ca0:	fe842703          	lw	a4,-24(s0)
     ca4:	02500793          	li	a5,37
     ca8:	1ef70863          	beq	a4,a5,e98 <my_vprintf+0x2a4>
     cac:	fe842703          	lw	a4,-24(s0)
     cb0:	02500793          	li	a5,37
     cb4:	20f74063          	blt	a4,a5,eb4 <my_vprintf+0x2c0>
     cb8:	fe842703          	lw	a4,-24(s0)
     cbc:	07800793          	li	a5,120
     cc0:	1ee7ca63          	blt	a5,a4,eb4 <my_vprintf+0x2c0>
     cc4:	fe842703          	lw	a4,-24(s0)
     cc8:	06300793          	li	a5,99
     ccc:	1ef74463          	blt	a4,a5,eb4 <my_vprintf+0x2c0>
     cd0:	fe842783          	lw	a5,-24(s0)
     cd4:	f9d78793          	addi	a5,a5,-99
     cd8:	01500713          	li	a4,21
     cdc:	1cf76c63          	bltu	a4,a5,eb4 <my_vprintf+0x2c0>
     ce0:	00279713          	slli	a4,a5,0x2
     ce4:	27418793          	addi	a5,gp,628 # 12b84 <__global_pointer$+0x274>
     ce8:	00f707b3          	add	a5,a4,a5
     cec:	0007a783          	lw	a5,0(a5)
     cf0:	00078067          	jr	a5
     cf4:	fc842783          	lw	a5,-56(s0)
     cf8:	00478713          	addi	a4,a5,4
     cfc:	fce42423          	sw	a4,-56(s0)
     d00:	0007a783          	lw	a5,0(a5)
     d04:	fcf40ba3          	sb	a5,-41(s0)
     d08:	fd744783          	lbu	a5,-41(s0)
     d0c:	00078513          	mv	a0,a5
     d10:	550000ef          	jal	1260 <uart_put_char>
     d14:	00050713          	mv	a4,a0
     d18:	fe042783          	lw	a5,-32(s0)
     d1c:	00f707b3          	add	a5,a4,a5
     d20:	fef42023          	sw	a5,-32(s0)
     d24:	1ec0006f          	j	f10 <my_vprintf+0x31c>
     d28:	fc842783          	lw	a5,-56(s0)
     d2c:	00478713          	addi	a4,a5,4
     d30:	fce42423          	sw	a4,-56(s0)
     d34:	0007a783          	lw	a5,0(a5)
     d38:	fcf42e23          	sw	a5,-36(s0)
     d3c:	fdc42783          	lw	a5,-36(s0)
     d40:	fec42603          	lw	a2,-20(s0)
     d44:	00800593          	li	a1,8
     d48:	00078513          	mv	a0,a5
     d4c:	c3dff0ef          	jal	988 <my_printn>
     d50:	00050713          	mv	a4,a0
     d54:	fe042783          	lw	a5,-32(s0)
     d58:	00e787b3          	add	a5,a5,a4
     d5c:	fef42023          	sw	a5,-32(s0)
     d60:	1b00006f          	j	f10 <my_vprintf+0x31c>
     d64:	fc842783          	lw	a5,-56(s0)
     d68:	00478713          	addi	a4,a5,4
     d6c:	fce42423          	sw	a4,-56(s0)
     d70:	0007a783          	lw	a5,0(a5)
     d74:	fcf42e23          	sw	a5,-36(s0)
     d78:	fdc42783          	lw	a5,-36(s0)
     d7c:	fec42603          	lw	a2,-20(s0)
     d80:	00a00593          	li	a1,10
     d84:	00078513          	mv	a0,a5
     d88:	c01ff0ef          	jal	988 <my_printn>
     d8c:	00050713          	mv	a4,a0
     d90:	fe042783          	lw	a5,-32(s0)
     d94:	00e787b3          	add	a5,a5,a4
     d98:	fef42023          	sw	a5,-32(s0)
     d9c:	1740006f          	j	f10 <my_vprintf+0x31c>
     da0:	fc842783          	lw	a5,-56(s0)
     da4:	00478713          	addi	a4,a5,4
     da8:	fce42423          	sw	a4,-56(s0)
     dac:	0007a783          	lw	a5,0(a5)
     db0:	fcf42e23          	sw	a5,-36(s0)
     db4:	fdc42783          	lw	a5,-36(s0)
     db8:	fec42603          	lw	a2,-20(s0)
     dbc:	01000593          	li	a1,16
     dc0:	00078513          	mv	a0,a5
     dc4:	bc5ff0ef          	jal	988 <my_printn>
     dc8:	00050713          	mv	a4,a0
     dcc:	fe042783          	lw	a5,-32(s0)
     dd0:	00e787b3          	add	a5,a5,a4
     dd4:	fef42023          	sw	a5,-32(s0)
     dd8:	1380006f          	j	f10 <my_vprintf+0x31c>
     ddc:	fc842783          	lw	a5,-56(s0)
     de0:	00478713          	addi	a4,a5,4
     de4:	fce42423          	sw	a4,-56(s0)
     de8:	0007a783          	lw	a5,0(a5)
     dec:	fef42223          	sw	a5,-28(s0)
     df0:	0480006f          	j	e38 <my_vprintf+0x244>
     df4:	fe442783          	lw	a5,-28(s0)
     df8:	0007c783          	lbu	a5,0(a5)
     dfc:	00078513          	mv	a0,a5
     e00:	460000ef          	jal	1260 <uart_put_char>
     e04:	00050713          	mv	a4,a0
     e08:	fe042783          	lw	a5,-32(s0)
     e0c:	00f707b3          	add	a5,a4,a5
     e10:	fef42023          	sw	a5,-32(s0)
     e14:	fe442783          	lw	a5,-28(s0)
     e18:	0007c703          	lbu	a4,0(a5)
     e1c:	00a00793          	li	a5,10
     e20:	00f71663          	bne	a4,a5,e2c <my_vprintf+0x238>
     e24:	00d00513          	li	a0,13
     e28:	438000ef          	jal	1260 <uart_put_char>
     e2c:	fe442783          	lw	a5,-28(s0)
     e30:	00178793          	addi	a5,a5,1
     e34:	fef42223          	sw	a5,-28(s0)
     e38:	fe442783          	lw	a5,-28(s0)
     e3c:	0007c783          	lbu	a5,0(a5)
     e40:	fa079ae3          	bnez	a5,df4 <my_vprintf+0x200>
     e44:	0cc0006f          	j	f10 <my_vprintf+0x31c>
     e48:	fc842783          	lw	a5,-56(s0)
     e4c:	00778793          	addi	a5,a5,7
     e50:	ff87f793          	andi	a5,a5,-8
     e54:	00878713          	addi	a4,a5,8
     e58:	fce42423          	sw	a4,-56(s0)
     e5c:	0007a703          	lw	a4,0(a5)
     e60:	0047a783          	lw	a5,4(a5)
     e64:	00070513          	mv	a0,a4
     e68:	00078593          	mv	a1,a5
     e6c:	0dd110ef          	jal	12748 <__truncdfsf2>
     e70:	00050793          	mv	a5,a0
     e74:	fcf42c23          	sw	a5,-40(s0)
     e78:	fec42583          	lw	a1,-20(s0)
     e7c:	fd842503          	lw	a0,-40(s0)
     e80:	bfdff0ef          	jal	a7c <my_printflt>
     e84:	00050713          	mv	a4,a0
     e88:	fe042783          	lw	a5,-32(s0)
     e8c:	00e787b3          	add	a5,a5,a4
     e90:	fef42023          	sw	a5,-32(s0)
     e94:	07c0006f          	j	f10 <my_vprintf+0x31c>
     e98:	02500513          	li	a0,37
     e9c:	3c4000ef          	jal	1260 <uart_put_char>
     ea0:	00050713          	mv	a4,a0
     ea4:	fe042783          	lw	a5,-32(s0)
     ea8:	00f707b3          	add	a5,a4,a5
     eac:	fef42023          	sw	a5,-32(s0)
     eb0:	0600006f          	j	f10 <my_vprintf+0x31c>
     eb4:	02500513          	li	a0,37
     eb8:	3a8000ef          	jal	1260 <uart_put_char>
     ebc:	00050713          	mv	a4,a0
     ec0:	fe042783          	lw	a5,-32(s0)
     ec4:	00f707b3          	add	a5,a4,a5
     ec8:	fef42023          	sw	a5,-32(s0)
     ecc:	fcc42783          	lw	a5,-52(s0)
     ed0:	fff78793          	addi	a5,a5,-1
     ed4:	fcf42623          	sw	a5,-52(s0)
     ed8:	0380006f          	j	f10 <my_vprintf+0x31c>
     edc:	fe842783          	lw	a5,-24(s0)
     ee0:	0ff7f793          	zext.b	a5,a5
     ee4:	00078513          	mv	a0,a5
     ee8:	378000ef          	jal	1260 <uart_put_char>
     eec:	00050713          	mv	a4,a0
     ef0:	fe042783          	lw	a5,-32(s0)
     ef4:	00f707b3          	add	a5,a4,a5
     ef8:	fef42023          	sw	a5,-32(s0)
     efc:	fe842703          	lw	a4,-24(s0)
     f00:	00a00793          	li	a5,10
     f04:	00f71663          	bne	a4,a5,f10 <my_vprintf+0x31c>
     f08:	00d00513          	li	a0,13
     f0c:	354000ef          	jal	1260 <uart_put_char>
     f10:	fcc42783          	lw	a5,-52(s0)
     f14:	00178713          	addi	a4,a5,1
     f18:	fce42623          	sw	a4,-52(s0)
     f1c:	0007c783          	lbu	a5,0(a5)
     f20:	fef42423          	sw	a5,-24(s0)
     f24:	fe842783          	lw	a5,-24(s0)
     f28:	ce0796e3          	bnez	a5,c14 <my_vprintf+0x20>
     f2c:	fe042783          	lw	a5,-32(s0)
     f30:	00078513          	mv	a0,a5
     f34:	03c12083          	lw	ra,60(sp)
     f38:	03812403          	lw	s0,56(sp)
     f3c:	04010113          	addi	sp,sp,64
     f40:	00008067          	ret

00000f44 <uart_init>:
     f44:	fc010113          	addi	sp,sp,-64
     f48:	02112e23          	sw	ra,60(sp)
     f4c:	02812c23          	sw	s0,56(sp)
     f50:	04010413          	addi	s0,sp,64
     f54:	fca42e23          	sw	a0,-36(s0)
     f58:	fcb42c23          	sw	a1,-40(s0)
     f5c:	fcc42a23          	sw	a2,-44(s0)
     f60:	fcd42823          	sw	a3,-48(s0)
     f64:	fce42623          	sw	a4,-52(s0)
     f68:	fdc42783          	lw	a5,-36(s0)
     f6c:	00079663          	bnez	a5,f78 <uart_init+0x34>
     f70:	5ec000ef          	jal	155c <uart_get_clk_freq>
     f74:	fca42e23          	sw	a0,-36(s0)
     f78:	fdc42703          	lw	a4,-36(s0)
     f7c:	fd842783          	lw	a5,-40(s0)
     f80:	02f757b3          	divu	a5,a4,a5
     f84:	00078513          	mv	a0,a5
     f88:	0c40e0ef          	jal	f04c <__floatunsidf>
     f8c:	00050713          	mv	a4,a0
     f90:	00058793          	mv	a5,a1
     f94:	2d01a603          	lw	a2,720(gp) # 12be0 <__global_pointer$+0x2d0>
     f98:	2d41a683          	lw	a3,724(gp) # 12be4 <__global_pointer$+0x2d4>
     f9c:	00070513          	mv	a0,a4
     fa0:	00078593          	mv	a1,a5
     fa4:	1340c0ef          	jal	d0d8 <__adddf3>
     fa8:	00050713          	mv	a4,a0
     fac:	00058793          	mv	a5,a1
     fb0:	00070513          	mv	a0,a4
     fb4:	00078593          	mv	a1,a5
     fb8:	76d0d0ef          	jal	ef24 <__fixdfsi>
     fbc:	00050793          	mv	a5,a0
     fc0:	00078713          	mv	a4,a5
     fc4:	000107b7          	lui	a5,0x10
     fc8:	fff78793          	addi	a5,a5,-1 # ffff <__multf3+0xc07>
     fcc:	00f777b3          	and	a5,a4,a5
     fd0:	fef42623          	sw	a5,-20(s0)
     fd4:	fd442703          	lw	a4,-44(s0)
     fd8:	00800793          	li	a5,8
     fdc:	00f71663          	bne	a4,a5,fe8 <uart_init+0xa4>
     fe0:	00000793          	li	a5,0
     fe4:	0080006f          	j	fec <uart_init+0xa8>
     fe8:	000107b7          	lui	a5,0x10
     fec:	fec42703          	lw	a4,-20(s0)
     ff0:	00e7e7b3          	or	a5,a5,a4
     ff4:	fef42623          	sw	a5,-20(s0)
     ff8:	fd042783          	lw	a5,-48(s0)
     ffc:	00079663          	bnez	a5,1008 <uart_init+0xc4>
    1000:	00000793          	li	a5,0
    1004:	0080006f          	j	100c <uart_init+0xc8>
    1008:	000207b7          	lui	a5,0x20
    100c:	fec42703          	lw	a4,-20(s0)
    1010:	00e7e7b3          	or	a5,a5,a4
    1014:	fef42623          	sw	a5,-20(s0)
    1018:	fd042703          	lw	a4,-48(s0)
    101c:	00100793          	li	a5,1
    1020:	00f71663          	bne	a4,a5,102c <uart_init+0xe8>
    1024:	00000793          	li	a5,0
    1028:	0080006f          	j	1030 <uart_init+0xec>
    102c:	000407b7          	lui	a5,0x40
    1030:	fec42703          	lw	a4,-20(s0)
    1034:	00e7e7b3          	or	a5,a5,a4
    1038:	fef42623          	sw	a5,-20(s0)
    103c:	fcc42703          	lw	a4,-52(s0)
    1040:	00100793          	li	a5,1
    1044:	00f71663          	bne	a4,a5,1050 <uart_init+0x10c>
    1048:	00000793          	li	a5,0
    104c:	0080006f          	j	1054 <uart_init+0x110>
    1050:	000807b7          	lui	a5,0x80
    1054:	fec42703          	lw	a4,-20(s0)
    1058:	00e7e7b3          	or	a5,a5,a4
    105c:	fef42623          	sw	a5,-20(s0)
    1060:	000147b7          	lui	a5,0x14
    1064:	df07a783          	lw	a5,-528(a5) # 13df0 <UART_CONTROL>
    1068:	fef42423          	sw	a5,-24(s0)
    106c:	fe842783          	lw	a5,-24(s0)
    1070:	fec42703          	lw	a4,-20(s0)
    1074:	00e7a023          	sw	a4,0(a5)
    1078:	00000013          	nop
    107c:	03c12083          	lw	ra,60(sp)
    1080:	03812403          	lw	s0,56(sp)
    1084:	04010113          	addi	sp,sp,64
    1088:	00008067          	ret

0000108c <uart_init_ext>:
    108c:	fc010113          	addi	sp,sp,-64
    1090:	02112e23          	sw	ra,60(sp)
    1094:	02812c23          	sw	s0,56(sp)
    1098:	04010413          	addi	s0,sp,64
    109c:	fca42e23          	sw	a0,-36(s0)
    10a0:	fcb42c23          	sw	a1,-40(s0)
    10a4:	fcc42a23          	sw	a2,-44(s0)
    10a8:	fcd42823          	sw	a3,-48(s0)
    10ac:	fce42623          	sw	a4,-52(s0)
    10b0:	fcf42423          	sw	a5,-56(s0)
    10b4:	fd042223          	sw	a6,-60(s0)
    10b8:	fdc42783          	lw	a5,-36(s0)
    10bc:	00079663          	bnez	a5,10c8 <uart_init_ext+0x3c>
    10c0:	49c000ef          	jal	155c <uart_get_clk_freq>
    10c4:	fca42e23          	sw	a0,-36(s0)
    10c8:	fdc42703          	lw	a4,-36(s0)
    10cc:	fd842783          	lw	a5,-40(s0)
    10d0:	02f757b3          	divu	a5,a4,a5
    10d4:	00078513          	mv	a0,a5
    10d8:	7750d0ef          	jal	f04c <__floatunsidf>
    10dc:	00050713          	mv	a4,a0
    10e0:	00058793          	mv	a5,a1
    10e4:	2d01a603          	lw	a2,720(gp) # 12be0 <__global_pointer$+0x2d0>
    10e8:	2d41a683          	lw	a3,724(gp) # 12be4 <__global_pointer$+0x2d4>
    10ec:	00070513          	mv	a0,a4
    10f0:	00078593          	mv	a1,a5
    10f4:	7e50b0ef          	jal	d0d8 <__adddf3>
    10f8:	00050713          	mv	a4,a0
    10fc:	00058793          	mv	a5,a1
    1100:	00070513          	mv	a0,a4
    1104:	00078593          	mv	a1,a5
    1108:	61d0d0ef          	jal	ef24 <__fixdfsi>
    110c:	00050793          	mv	a5,a0
    1110:	00078713          	mv	a4,a5
    1114:	000107b7          	lui	a5,0x10
    1118:	fff78793          	addi	a5,a5,-1 # ffff <__multf3+0xc07>
    111c:	00f777b3          	and	a5,a4,a5
    1120:	fef42623          	sw	a5,-20(s0)
    1124:	fd442703          	lw	a4,-44(s0)
    1128:	00800793          	li	a5,8
    112c:	00f71663          	bne	a4,a5,1138 <uart_init_ext+0xac>
    1130:	00000793          	li	a5,0
    1134:	0080006f          	j	113c <uart_init_ext+0xb0>
    1138:	000107b7          	lui	a5,0x10
    113c:	fec42703          	lw	a4,-20(s0)
    1140:	00e7e7b3          	or	a5,a5,a4
    1144:	fef42623          	sw	a5,-20(s0)
    1148:	fd042783          	lw	a5,-48(s0)
    114c:	00079663          	bnez	a5,1158 <uart_init_ext+0xcc>
    1150:	00000793          	li	a5,0
    1154:	0080006f          	j	115c <uart_init_ext+0xd0>
    1158:	000207b7          	lui	a5,0x20
    115c:	fec42703          	lw	a4,-20(s0)
    1160:	00e7e7b3          	or	a5,a5,a4
    1164:	fef42623          	sw	a5,-20(s0)
    1168:	fd042703          	lw	a4,-48(s0)
    116c:	00100793          	li	a5,1
    1170:	00f71663          	bne	a4,a5,117c <uart_init_ext+0xf0>
    1174:	00000793          	li	a5,0
    1178:	0080006f          	j	1180 <uart_init_ext+0xf4>
    117c:	000407b7          	lui	a5,0x40
    1180:	fec42703          	lw	a4,-20(s0)
    1184:	00e7e7b3          	or	a5,a5,a4
    1188:	fef42623          	sw	a5,-20(s0)
    118c:	fcc42703          	lw	a4,-52(s0)
    1190:	00100793          	li	a5,1
    1194:	00f71663          	bne	a4,a5,11a0 <uart_init_ext+0x114>
    1198:	00000793          	li	a5,0
    119c:	0080006f          	j	11a4 <uart_init_ext+0x118>
    11a0:	000807b7          	lui	a5,0x80
    11a4:	fec42703          	lw	a4,-20(s0)
    11a8:	00e7e7b3          	or	a5,a5,a4
    11ac:	fef42623          	sw	a5,-20(s0)
    11b0:	fc842783          	lw	a5,-56(s0)
    11b4:	00079663          	bnez	a5,11c0 <uart_init_ext+0x134>
    11b8:	00000793          	li	a5,0
    11bc:	0080006f          	j	11c4 <uart_init_ext+0x138>
    11c0:	002007b7          	lui	a5,0x200
    11c4:	fec42703          	lw	a4,-20(s0)
    11c8:	00e7e7b3          	or	a5,a5,a4
    11cc:	fef42623          	sw	a5,-20(s0)
    11d0:	fc442783          	lw	a5,-60(s0)
    11d4:	00079663          	bnez	a5,11e0 <uart_init_ext+0x154>
    11d8:	00000793          	li	a5,0
    11dc:	0080006f          	j	11e4 <uart_init_ext+0x158>
    11e0:	001007b7          	lui	a5,0x100
    11e4:	fec42703          	lw	a4,-20(s0)
    11e8:	00e7e7b3          	or	a5,a5,a4
    11ec:	fef42623          	sw	a5,-20(s0)
    11f0:	000147b7          	lui	a5,0x14
    11f4:	df07a783          	lw	a5,-528(a5) # 13df0 <UART_CONTROL>
    11f8:	fef42423          	sw	a5,-24(s0)
    11fc:	fe842783          	lw	a5,-24(s0)
    1200:	fec42703          	lw	a4,-20(s0)
    1204:	00e7a023          	sw	a4,0(a5)
    1208:	00000013          	nop
    120c:	03c12083          	lw	ra,60(sp)
    1210:	03812403          	lw	s0,56(sp)
    1214:	04010113          	addi	sp,sp,64
    1218:	00008067          	ret

0000121c <uart_get_char>:
    121c:	fe010113          	addi	sp,sp,-32
    1220:	00812e23          	sw	s0,28(sp)
    1224:	02010413          	addi	s0,sp,32
    1228:	000147b7          	lui	a5,0x14
    122c:	dfc7a783          	lw	a5,-516(a5) # 13dfc <UART_RX>
    1230:	fef42423          	sw	a5,-24(s0)
    1234:	fe842783          	lw	a5,-24(s0)
    1238:	0007a783          	lw	a5,0(a5)
    123c:	fef42623          	sw	a5,-20(s0)
    1240:	fec42783          	lw	a5,-20(s0)
    1244:	fe07d2e3          	bgez	a5,1228 <uart_get_char+0xc>
    1248:	fec42783          	lw	a5,-20(s0)
    124c:	0ff7f793          	zext.b	a5,a5
    1250:	00078513          	mv	a0,a5
    1254:	01c12403          	lw	s0,28(sp)
    1258:	02010113          	addi	sp,sp,32
    125c:	00008067          	ret

00001260 <uart_put_char>:
    1260:	fd010113          	addi	sp,sp,-48
    1264:	02812623          	sw	s0,44(sp)
    1268:	03010413          	addi	s0,sp,48
    126c:	00050793          	mv	a5,a0
    1270:	fcf40fa3          	sb	a5,-33(s0)
    1274:	000147b7          	lui	a5,0x14
    1278:	df87a783          	lw	a5,-520(a5) # 13df8 <UART_TX>
    127c:	fef42423          	sw	a5,-24(s0)
    1280:	fe842783          	lw	a5,-24(s0)
    1284:	0007a783          	lw	a5,0(a5)
    1288:	fef42623          	sw	a5,-20(s0)
    128c:	fec42783          	lw	a5,-20(s0)
    1290:	fe07c2e3          	bltz	a5,1274 <uart_put_char+0x14>
    1294:	fdf44783          	lbu	a5,-33(s0)
    1298:	fef42623          	sw	a5,-20(s0)
    129c:	000147b7          	lui	a5,0x14
    12a0:	df87a783          	lw	a5,-520(a5) # 13df8 <UART_TX>
    12a4:	fef42223          	sw	a5,-28(s0)
    12a8:	fe442783          	lw	a5,-28(s0)
    12ac:	fec42703          	lw	a4,-20(s0)
    12b0:	00e7a023          	sw	a4,0(a5)
    12b4:	fdf44783          	lbu	a5,-33(s0)
    12b8:	00078513          	mv	a0,a5
    12bc:	02c12403          	lw	s0,44(sp)
    12c0:	03010113          	addi	sp,sp,48
    12c4:	00008067          	ret

000012c8 <uart_put_string>:
    12c8:	fc010113          	addi	sp,sp,-64
    12cc:	02812e23          	sw	s0,60(sp)
    12d0:	04010413          	addi	s0,sp,64
    12d4:	fca42623          	sw	a0,-52(s0)
    12d8:	fe042623          	sw	zero,-20(s0)
    12dc:	0480006f          	j	1324 <uart_put_string+0x5c>
    12e0:	000147b7          	lui	a5,0x14
    12e4:	df87a783          	lw	a5,-520(a5) # 13df8 <UART_TX>
    12e8:	fef42023          	sw	a5,-32(s0)
    12ec:	fe042783          	lw	a5,-32(s0)
    12f0:	0007a783          	lw	a5,0(a5)
    12f4:	fef42223          	sw	a5,-28(s0)
    12f8:	fe442783          	lw	a5,-28(s0)
    12fc:	fe07c2e3          	bltz	a5,12e0 <uart_put_string+0x18>
    1300:	000147b7          	lui	a5,0x14
    1304:	df87a783          	lw	a5,-520(a5) # 13df8 <UART_TX>
    1308:	fcf42e23          	sw	a5,-36(s0)
    130c:	fdc42783          	lw	a5,-36(s0)
    1310:	feb44703          	lbu	a4,-21(s0)
    1314:	00e7a023          	sw	a4,0(a5)
    1318:	fec42783          	lw	a5,-20(s0)
    131c:	00178793          	addi	a5,a5,1
    1320:	fef42623          	sw	a5,-20(s0)
    1324:	fcc42783          	lw	a5,-52(s0)
    1328:	00178713          	addi	a4,a5,1
    132c:	fce42623          	sw	a4,-52(s0)
    1330:	0007c783          	lbu	a5,0(a5)
    1334:	fef405a3          	sb	a5,-21(s0)
    1338:	feb44783          	lbu	a5,-21(s0)
    133c:	fa0792e3          	bnez	a5,12e0 <uart_put_string+0x18>
    1340:	fec42783          	lw	a5,-20(s0)
    1344:	00078513          	mv	a0,a5
    1348:	03c12403          	lw	s0,60(sp)
    134c:	04010113          	addi	sp,sp,64
    1350:	00008067          	ret

00001354 <uart_put_int>:
    1354:	fc010113          	addi	sp,sp,-64
    1358:	02112e23          	sw	ra,60(sp)
    135c:	02812c23          	sw	s0,56(sp)
    1360:	04010413          	addi	s0,sp,64
    1364:	fca42623          	sw	a0,-52(s0)
    1368:	fcc42703          	lw	a4,-52(s0)
    136c:	00a00793          	li	a5,10
    1370:	02f757b3          	divu	a5,a4,a5
    1374:	fef42623          	sw	a5,-20(s0)
    1378:	fec42783          	lw	a5,-20(s0)
    137c:	00078863          	beqz	a5,138c <uart_put_int+0x38>
    1380:	fec42783          	lw	a5,-20(s0)
    1384:	00078513          	mv	a0,a5
    1388:	fcdff0ef          	jal	1354 <uart_put_int>
    138c:	fcc42703          	lw	a4,-52(s0)
    1390:	00a00793          	li	a5,10
    1394:	02f777b3          	remu	a5,a4,a5
    1398:	0ff7f793          	zext.b	a5,a5
    139c:	03078793          	addi	a5,a5,48
    13a0:	fef405a3          	sb	a5,-21(s0)
    13a4:	000147b7          	lui	a5,0x14
    13a8:	df87a783          	lw	a5,-520(a5) # 13df8 <UART_TX>
    13ac:	fcf42a23          	sw	a5,-44(s0)
    13b0:	fd442783          	lw	a5,-44(s0)
    13b4:	0007a783          	lw	a5,0(a5)
    13b8:	fcf42c23          	sw	a5,-40(s0)
    13bc:	fd842783          	lw	a5,-40(s0)
    13c0:	fe07c2e3          	bltz	a5,13a4 <uart_put_int+0x50>
    13c4:	000147b7          	lui	a5,0x14
    13c8:	df87a783          	lw	a5,-520(a5) # 13df8 <UART_TX>
    13cc:	fcf42823          	sw	a5,-48(s0)
    13d0:	fd042783          	lw	a5,-48(s0)
    13d4:	feb44703          	lbu	a4,-21(s0)
    13d8:	00e7a023          	sw	a4,0(a5)
    13dc:	00000013          	nop
    13e0:	03c12083          	lw	ra,60(sp)
    13e4:	03812403          	lw	s0,56(sp)
    13e8:	04010113          	addi	sp,sp,64
    13ec:	00008067          	ret

000013f0 <uart_put_hex>:
    13f0:	fc010113          	addi	sp,sp,-64
    13f4:	02112e23          	sw	ra,60(sp)
    13f8:	02812c23          	sw	s0,56(sp)
    13fc:	04010413          	addi	s0,sp,64
    1400:	fca42623          	sw	a0,-52(s0)
    1404:	fcc42783          	lw	a5,-52(s0)
    1408:	0047d793          	srli	a5,a5,0x4
    140c:	fef42423          	sw	a5,-24(s0)
    1410:	fe842783          	lw	a5,-24(s0)
    1414:	00078863          	beqz	a5,1424 <uart_put_hex+0x34>
    1418:	fe842783          	lw	a5,-24(s0)
    141c:	00078513          	mv	a0,a5
    1420:	fd1ff0ef          	jal	13f0 <uart_put_hex>
    1424:	fcc42783          	lw	a5,-52(s0)
    1428:	00f7f793          	andi	a5,a5,15
    142c:	fef42423          	sw	a5,-24(s0)
    1430:	fe842703          	lw	a4,-24(s0)
    1434:	00900793          	li	a5,9
    1438:	00e7cc63          	blt	a5,a4,1450 <uart_put_hex+0x60>
    143c:	fe842783          	lw	a5,-24(s0)
    1440:	0ff7f793          	zext.b	a5,a5
    1444:	03078793          	addi	a5,a5,48
    1448:	fef407a3          	sb	a5,-17(s0)
    144c:	0140006f          	j	1460 <uart_put_hex+0x70>
    1450:	fe842783          	lw	a5,-24(s0)
    1454:	0ff7f793          	zext.b	a5,a5
    1458:	03778793          	addi	a5,a5,55
    145c:	fef407a3          	sb	a5,-17(s0)
    1460:	000147b7          	lui	a5,0x14
    1464:	df87a783          	lw	a5,-520(a5) # 13df8 <UART_TX>
    1468:	fef42023          	sw	a5,-32(s0)
    146c:	fe042783          	lw	a5,-32(s0)
    1470:	0007a783          	lw	a5,0(a5)
    1474:	fef42223          	sw	a5,-28(s0)
    1478:	fe442783          	lw	a5,-28(s0)
    147c:	fe07c2e3          	bltz	a5,1460 <uart_put_hex+0x70>
    1480:	000147b7          	lui	a5,0x14
    1484:	df87a783          	lw	a5,-520(a5) # 13df8 <UART_TX>
    1488:	fcf42e23          	sw	a5,-36(s0)
    148c:	fdc42783          	lw	a5,-36(s0)
    1490:	fef44703          	lbu	a4,-17(s0)
    1494:	00e7a023          	sw	a4,0(a5)
    1498:	00000013          	nop
    149c:	03c12083          	lw	ra,60(sp)
    14a0:	03812403          	lw	s0,56(sp)
    14a4:	04010113          	addi	sp,sp,64
    14a8:	00008067          	ret

000014ac <uart_cler_tx_irq>:
    14ac:	fe010113          	addi	sp,sp,-32
    14b0:	00812e23          	sw	s0,28(sp)
    14b4:	02010413          	addi	s0,sp,32
    14b8:	000147b7          	lui	a5,0x14
    14bc:	df47a783          	lw	a5,-524(a5) # 13df4 <UART_STATUS>
    14c0:	fef42423          	sw	a5,-24(s0)
    14c4:	fe842783          	lw	a5,-24(s0)
    14c8:	0007a783          	lw	a5,0(a5)
    14cc:	fef42623          	sw	a5,-20(s0)
    14d0:	fec42783          	lw	a5,-20(s0)
    14d4:	ffe7f793          	andi	a5,a5,-2
    14d8:	fef42623          	sw	a5,-20(s0)
    14dc:	000147b7          	lui	a5,0x14
    14e0:	df47a783          	lw	a5,-524(a5) # 13df4 <UART_STATUS>
    14e4:	fef42223          	sw	a5,-28(s0)
    14e8:	fe442783          	lw	a5,-28(s0)
    14ec:	fec42703          	lw	a4,-20(s0)
    14f0:	00e7a023          	sw	a4,0(a5)
    14f4:	00000013          	nop
    14f8:	01c12403          	lw	s0,28(sp)
    14fc:	02010113          	addi	sp,sp,32
    1500:	00008067          	ret

00001504 <uart_cler_rx_irq>:
    1504:	fe010113          	addi	sp,sp,-32
    1508:	00812e23          	sw	s0,28(sp)
    150c:	02010413          	addi	s0,sp,32
    1510:	000147b7          	lui	a5,0x14
    1514:	df47a783          	lw	a5,-524(a5) # 13df4 <UART_STATUS>
    1518:	fef42423          	sw	a5,-24(s0)
    151c:	fe842783          	lw	a5,-24(s0)
    1520:	0007a783          	lw	a5,0(a5)
    1524:	fef42623          	sw	a5,-20(s0)
    1528:	fec42783          	lw	a5,-20(s0)
    152c:	ffd7f793          	andi	a5,a5,-3
    1530:	fef42623          	sw	a5,-20(s0)
    1534:	000147b7          	lui	a5,0x14
    1538:	df47a783          	lw	a5,-524(a5) # 13df4 <UART_STATUS>
    153c:	fef42223          	sw	a5,-28(s0)
    1540:	fe442783          	lw	a5,-28(s0)
    1544:	fec42703          	lw	a4,-20(s0)
    1548:	00e7a023          	sw	a4,0(a5)
    154c:	00000013          	nop
    1550:	01c12403          	lw	s0,28(sp)
    1554:	02010113          	addi	sp,sp,32
    1558:	00008067          	ret

0000155c <uart_get_clk_freq>:
    155c:	fe010113          	addi	sp,sp,-32
    1560:	00812e23          	sw	s0,28(sp)
    1564:	02010413          	addi	s0,sp,32
    1568:	000147b7          	lui	a5,0x14
    156c:	e007a783          	lw	a5,-512(a5) # 13e00 <UART_CLK_FREQ>
    1570:	fef42423          	sw	a5,-24(s0)
    1574:	fe842783          	lw	a5,-24(s0)
    1578:	0007a783          	lw	a5,0(a5)
    157c:	fef42623          	sw	a5,-20(s0)
    1580:	fec42783          	lw	a5,-20(s0)
    1584:	00078513          	mv	a0,a5
    1588:	01c12403          	lw	s0,28(sp)
    158c:	02010113          	addi	sp,sp,32
    1590:	00008067          	ret

00001594 <uart_set_addr>:
    1594:	fe010113          	addi	sp,sp,-32
    1598:	00812e23          	sw	s0,28(sp)
    159c:	02010413          	addi	s0,sp,32
    15a0:	fea42623          	sw	a0,-20(s0)
    15a4:	000147b7          	lui	a5,0x14
    15a8:	fec42703          	lw	a4,-20(s0)
    15ac:	dee7a223          	sw	a4,-540(a5) # 13de4 <UART_ADDR_BASE>
    15b0:	000147b7          	lui	a5,0x14
    15b4:	fec42703          	lw	a4,-20(s0)
    15b8:	dee7a423          	sw	a4,-536(a5) # 13de8 <UART_VERSION>
    15bc:	fec42783          	lw	a5,-20(s0)
    15c0:	00478713          	addi	a4,a5,4
    15c4:	000147b7          	lui	a5,0x14
    15c8:	dee7a623          	sw	a4,-532(a5) # 13dec <UART_NAME>
    15cc:	fec42783          	lw	a5,-20(s0)
    15d0:	01078713          	addi	a4,a5,16
    15d4:	000147b7          	lui	a5,0x14
    15d8:	dee7a823          	sw	a4,-528(a5) # 13df0 <UART_CONTROL>
    15dc:	fec42783          	lw	a5,-20(s0)
    15e0:	01478713          	addi	a4,a5,20
    15e4:	000147b7          	lui	a5,0x14
    15e8:	dee7aa23          	sw	a4,-524(a5) # 13df4 <UART_STATUS>
    15ec:	fec42783          	lw	a5,-20(s0)
    15f0:	01878713          	addi	a4,a5,24
    15f4:	000147b7          	lui	a5,0x14
    15f8:	dee7ac23          	sw	a4,-520(a5) # 13df8 <UART_TX>
    15fc:	fec42783          	lw	a5,-20(s0)
    1600:	01c78713          	addi	a4,a5,28
    1604:	000147b7          	lui	a5,0x14
    1608:	dee7ae23          	sw	a4,-516(a5) # 13dfc <UART_RX>
    160c:	fec42783          	lw	a5,-20(s0)
    1610:	02078713          	addi	a4,a5,32
    1614:	000147b7          	lui	a5,0x14
    1618:	e0e7a023          	sw	a4,-512(a5) # 13e00 <UART_CLK_FREQ>
    161c:	00000013          	nop
    1620:	01c12403          	lw	s0,28(sp)
    1624:	02010113          	addi	sp,sp,32
    1628:	00008067          	ret

0000162c <uart_get_addr>:
    162c:	ff010113          	addi	sp,sp,-16
    1630:	00812623          	sw	s0,12(sp)
    1634:	01010413          	addi	s0,sp,16
    1638:	000147b7          	lui	a5,0x14
    163c:	de47a783          	lw	a5,-540(a5) # 13de4 <UART_ADDR_BASE>
    1640:	00078513          	mv	a0,a5
    1644:	00c12403          	lw	s0,12(sp)
    1648:	01010113          	addi	sp,sp,16
    164c:	00008067          	ret

00001650 <gpio_read>:
    1650:	fe010113          	addi	sp,sp,-32
    1654:	00812e23          	sw	s0,28(sp)
    1658:	02010413          	addi	s0,sp,32
    165c:	000147b7          	lui	a5,0x14
    1660:	e147a783          	lw	a5,-492(a5) # 13e14 <CSRA_INPUT>
    1664:	0007a783          	lw	a5,0(a5)
    1668:	fef42623          	sw	a5,-20(s0)
    166c:	fec42783          	lw	a5,-20(s0)
    1670:	00078513          	mv	a0,a5
    1674:	01c12403          	lw	s0,28(sp)
    1678:	02010113          	addi	sp,sp,32
    167c:	00008067          	ret

00001680 <gpio_write>:
    1680:	fe010113          	addi	sp,sp,-32
    1684:	00812e23          	sw	s0,28(sp)
    1688:	02010413          	addi	s0,sp,32
    168c:	fea42623          	sw	a0,-20(s0)
    1690:	000147b7          	lui	a5,0x14
    1694:	e187a783          	lw	a5,-488(a5) # 13e18 <CSRA_OUTPUT>
    1698:	00078713          	mv	a4,a5
    169c:	fec42783          	lw	a5,-20(s0)
    16a0:	00f72023          	sw	a5,0(a4)
    16a4:	00000013          	nop
    16a8:	01c12403          	lw	s0,28(sp)
    16ac:	02010113          	addi	sp,sp,32
    16b0:	00008067          	ret

000016b4 <gpio_init>:
    16b4:	fd010113          	addi	sp,sp,-48
    16b8:	02812623          	sw	s0,44(sp)
    16bc:	03010413          	addi	s0,sp,48
    16c0:	fca42e23          	sw	a0,-36(s0)
    16c4:	fcb42c23          	sw	a1,-40(s0)
    16c8:	fcc42a23          	sw	a2,-44(s0)
    16cc:	fcd42823          	sw	a3,-48(s0)
    16d0:	fe042623          	sw	zero,-20(s0)
    16d4:	000147b7          	lui	a5,0x14
    16d8:	e107a783          	lw	a5,-496(a5) # 13e10 <CSRA_DIR>
    16dc:	00078713          	mv	a4,a5
    16e0:	fdc42783          	lw	a5,-36(s0)
    16e4:	00f72023          	sw	a5,0(a4)
    16e8:	000147b7          	lui	a5,0x14
    16ec:	e187a783          	lw	a5,-488(a5) # 13e18 <CSRA_OUTPUT>
    16f0:	00078713          	mv	a4,a5
    16f4:	fec42783          	lw	a5,-20(s0)
    16f8:	00f72023          	sw	a5,0(a4)
    16fc:	000147b7          	lui	a5,0x14
    1700:	e247a783          	lw	a5,-476(a5) # 13e24 <CSRA_EDGE>
    1704:	00078713          	mv	a4,a5
    1708:	fd842783          	lw	a5,-40(s0)
    170c:	00f72023          	sw	a5,0(a4)
    1710:	000147b7          	lui	a5,0x14
    1714:	e287a783          	lw	a5,-472(a5) # 13e28 <CSRA_POL>
    1718:	00078713          	mv	a4,a5
    171c:	fd442783          	lw	a5,-44(s0)
    1720:	00f72023          	sw	a5,0(a4)
    1724:	fd042783          	lw	a5,-48(s0)
    1728:	fff7c793          	not	a5,a5
    172c:	fef42623          	sw	a5,-20(s0)
    1730:	000147b7          	lui	a5,0x14
    1734:	e1c7a783          	lw	a5,-484(a5) # 13e1c <CSRA_MASK>
    1738:	00078713          	mv	a4,a5
    173c:	fec42783          	lw	a5,-20(s0)
    1740:	00f72023          	sw	a5,0(a4)
    1744:	00000013          	nop
    1748:	02c12403          	lw	s0,44(sp)
    174c:	03010113          	addi	sp,sp,48
    1750:	00008067          	ret

00001754 <gpio_irq_enable>:
    1754:	fd010113          	addi	sp,sp,-48
    1758:	02812623          	sw	s0,44(sp)
    175c:	03010413          	addi	s0,sp,48
    1760:	fca42e23          	sw	a0,-36(s0)
    1764:	fdc42783          	lw	a5,-36(s0)
    1768:	fff7c793          	not	a5,a5
    176c:	fef42623          	sw	a5,-20(s0)
    1770:	000147b7          	lui	a5,0x14
    1774:	e1c7a783          	lw	a5,-484(a5) # 13e1c <CSRA_MASK>
    1778:	00078713          	mv	a4,a5
    177c:	fec42783          	lw	a5,-20(s0)
    1780:	00f72023          	sw	a5,0(a4)
    1784:	000147b7          	lui	a5,0x14
    1788:	e1c7a783          	lw	a5,-484(a5) # 13e1c <CSRA_MASK>
    178c:	0007a783          	lw	a5,0(a5)
    1790:	fef42623          	sw	a5,-20(s0)
    1794:	fec42783          	lw	a5,-20(s0)
    1798:	00078513          	mv	a0,a5
    179c:	02c12403          	lw	s0,44(sp)
    17a0:	03010113          	addi	sp,sp,48
    17a4:	00008067          	ret

000017a8 <gpio_irq_edge>:
    17a8:	fe010113          	addi	sp,sp,-32
    17ac:	00812e23          	sw	s0,28(sp)
    17b0:	02010413          	addi	s0,sp,32
    17b4:	fea42623          	sw	a0,-20(s0)
    17b8:	000147b7          	lui	a5,0x14
    17bc:	e247a783          	lw	a5,-476(a5) # 13e24 <CSRA_EDGE>
    17c0:	00078713          	mv	a4,a5
    17c4:	fec42783          	lw	a5,-20(s0)
    17c8:	00f72023          	sw	a5,0(a4)
    17cc:	000147b7          	lui	a5,0x14
    17d0:	e247a783          	lw	a5,-476(a5) # 13e24 <CSRA_EDGE>
    17d4:	0007a783          	lw	a5,0(a5)
    17d8:	fef42623          	sw	a5,-20(s0)
    17dc:	fec42783          	lw	a5,-20(s0)
    17e0:	00078513          	mv	a0,a5
    17e4:	01c12403          	lw	s0,28(sp)
    17e8:	02010113          	addi	sp,sp,32
    17ec:	00008067          	ret

000017f0 <gpio_irq_pol>:
    17f0:	fe010113          	addi	sp,sp,-32
    17f4:	00812e23          	sw	s0,28(sp)
    17f8:	02010413          	addi	s0,sp,32
    17fc:	fea42623          	sw	a0,-20(s0)
    1800:	000147b7          	lui	a5,0x14
    1804:	e287a783          	lw	a5,-472(a5) # 13e28 <CSRA_POL>
    1808:	00078713          	mv	a4,a5
    180c:	fec42783          	lw	a5,-20(s0)
    1810:	00f72023          	sw	a5,0(a4)
    1814:	000147b7          	lui	a5,0x14
    1818:	e287a783          	lw	a5,-472(a5) # 13e28 <CSRA_POL>
    181c:	0007a783          	lw	a5,0(a5)
    1820:	fef42623          	sw	a5,-20(s0)
    1824:	fec42783          	lw	a5,-20(s0)
    1828:	00078513          	mv	a0,a5
    182c:	01c12403          	lw	s0,28(sp)
    1830:	02010113          	addi	sp,sp,32
    1834:	00008067          	ret

00001838 <gpio_irq_read>:
    1838:	fe010113          	addi	sp,sp,-32
    183c:	00812e23          	sw	s0,28(sp)
    1840:	02010413          	addi	s0,sp,32
    1844:	000147b7          	lui	a5,0x14
    1848:	e207a783          	lw	a5,-480(a5) # 13e20 <CSRA_IRQ>
    184c:	0007a783          	lw	a5,0(a5)
    1850:	fef42623          	sw	a5,-20(s0)
    1854:	fec42783          	lw	a5,-20(s0)
    1858:	00078513          	mv	a0,a5
    185c:	01c12403          	lw	s0,28(sp)
    1860:	02010113          	addi	sp,sp,32
    1864:	00008067          	ret

00001868 <gpio_irq_clear>:
    1868:	fd010113          	addi	sp,sp,-48
    186c:	02812623          	sw	s0,44(sp)
    1870:	03010413          	addi	s0,sp,48
    1874:	fca42e23          	sw	a0,-36(s0)
    1878:	000147b7          	lui	a5,0x14
    187c:	e207a783          	lw	a5,-480(a5) # 13e20 <CSRA_IRQ>
    1880:	0007a783          	lw	a5,0(a5)
    1884:	fef42623          	sw	a5,-20(s0)
    1888:	fec42703          	lw	a4,-20(s0)
    188c:	fdc42783          	lw	a5,-36(s0)
    1890:	00f777b3          	and	a5,a4,a5
    1894:	fef42623          	sw	a5,-20(s0)
    1898:	000147b7          	lui	a5,0x14
    189c:	e207a783          	lw	a5,-480(a5) # 13e20 <CSRA_IRQ>
    18a0:	00078713          	mv	a4,a5
    18a4:	fec42783          	lw	a5,-20(s0)
    18a8:	00f72023          	sw	a5,0(a4)
    18ac:	000147b7          	lui	a5,0x14
    18b0:	e207a783          	lw	a5,-480(a5) # 13e20 <CSRA_IRQ>
    18b4:	0007a783          	lw	a5,0(a5)
    18b8:	fcf42e23          	sw	a5,-36(s0)
    18bc:	fdc42783          	lw	a5,-36(s0)
    18c0:	00078513          	mv	a0,a5
    18c4:	02c12403          	lw	s0,44(sp)
    18c8:	03010113          	addi	sp,sp,48
    18cc:	00008067          	ret

000018d0 <gpio_csr>:
    18d0:	fe010113          	addi	sp,sp,-32
    18d4:	00112e23          	sw	ra,28(sp)
    18d8:	00812c23          	sw	s0,24(sp)
    18dc:	02010413          	addi	s0,sp,32
    18e0:	000147b7          	lui	a5,0x14
    18e4:	e087a783          	lw	a5,-504(a5) # 13e08 <CSRA_VERSION>
    18e8:	0007a783          	lw	a5,0(a5)
    18ec:	fef42623          	sw	a5,-20(s0)
    18f0:	fec42583          	lw	a1,-20(s0)
    18f4:	2d818513          	addi	a0,gp,728 # 12be8 <__global_pointer$+0x2d8>
    18f8:	3c9000ef          	jal	24c0 <printf>
    18fc:	000147b7          	lui	a5,0x14
    1900:	e0c7a783          	lw	a5,-500(a5) # 13e0c <CSRA_NAME>
    1904:	0007a783          	lw	a5,0(a5)
    1908:	fef42623          	sw	a5,-20(s0)
    190c:	fec42583          	lw	a1,-20(s0)
    1910:	2f018513          	addi	a0,gp,752 # 12c00 <__global_pointer$+0x2f0>
    1914:	3ad000ef          	jal	24c0 <printf>
    1918:	000147b7          	lui	a5,0x14
    191c:	e107a783          	lw	a5,-496(a5) # 13e10 <CSRA_DIR>
    1920:	0007a783          	lw	a5,0(a5)
    1924:	fef42623          	sw	a5,-20(s0)
    1928:	fec42583          	lw	a1,-20(s0)
    192c:	30818513          	addi	a0,gp,776 # 12c18 <__global_pointer$+0x308>
    1930:	391000ef          	jal	24c0 <printf>
    1934:	000147b7          	lui	a5,0x14
    1938:	e147a783          	lw	a5,-492(a5) # 13e14 <CSRA_INPUT>
    193c:	0007a783          	lw	a5,0(a5)
    1940:	fef42623          	sw	a5,-20(s0)
    1944:	fec42583          	lw	a1,-20(s0)
    1948:	32018513          	addi	a0,gp,800 # 12c30 <__global_pointer$+0x320>
    194c:	375000ef          	jal	24c0 <printf>
    1950:	000147b7          	lui	a5,0x14
    1954:	e187a783          	lw	a5,-488(a5) # 13e18 <CSRA_OUTPUT>
    1958:	0007a783          	lw	a5,0(a5)
    195c:	fef42623          	sw	a5,-20(s0)
    1960:	fec42583          	lw	a1,-20(s0)
    1964:	33818513          	addi	a0,gp,824 # 12c48 <__global_pointer$+0x338>
    1968:	359000ef          	jal	24c0 <printf>
    196c:	000147b7          	lui	a5,0x14
    1970:	e1c7a783          	lw	a5,-484(a5) # 13e1c <CSRA_MASK>
    1974:	0007a783          	lw	a5,0(a5)
    1978:	fef42623          	sw	a5,-20(s0)
    197c:	fec42583          	lw	a1,-20(s0)
    1980:	35018513          	addi	a0,gp,848 # 12c60 <__global_pointer$+0x350>
    1984:	33d000ef          	jal	24c0 <printf>
    1988:	000147b7          	lui	a5,0x14
    198c:	e207a783          	lw	a5,-480(a5) # 13e20 <CSRA_IRQ>
    1990:	0007a783          	lw	a5,0(a5)
    1994:	fef42623          	sw	a5,-20(s0)
    1998:	fec42583          	lw	a1,-20(s0)
    199c:	36818513          	addi	a0,gp,872 # 12c78 <__global_pointer$+0x368>
    19a0:	321000ef          	jal	24c0 <printf>
    19a4:	000147b7          	lui	a5,0x14
    19a8:	e247a783          	lw	a5,-476(a5) # 13e24 <CSRA_EDGE>
    19ac:	0007a783          	lw	a5,0(a5)
    19b0:	fef42623          	sw	a5,-20(s0)
    19b4:	fec42583          	lw	a1,-20(s0)
    19b8:	38018513          	addi	a0,gp,896 # 12c90 <__global_pointer$+0x380>
    19bc:	305000ef          	jal	24c0 <printf>
    19c0:	000147b7          	lui	a5,0x14
    19c4:	e287a783          	lw	a5,-472(a5) # 13e28 <CSRA_POL>
    19c8:	0007a783          	lw	a5,0(a5)
    19cc:	fef42623          	sw	a5,-20(s0)
    19d0:	fec42583          	lw	a1,-20(s0)
    19d4:	39818513          	addi	a0,gp,920 # 12ca8 <__global_pointer$+0x398>
    19d8:	2e9000ef          	jal	24c0 <printf>
    19dc:	00000013          	nop
    19e0:	01c12083          	lw	ra,28(sp)
    19e4:	01812403          	lw	s0,24(sp)
    19e8:	02010113          	addi	sp,sp,32
    19ec:	00008067          	ret

000019f0 <gpio_set_addr>:
    19f0:	fe010113          	addi	sp,sp,-32
    19f4:	00812e23          	sw	s0,28(sp)
    19f8:	02010413          	addi	s0,sp,32
    19fc:	fea42623          	sw	a0,-20(s0)
    1a00:	000147b7          	lui	a5,0x14
    1a04:	fec42703          	lw	a4,-20(s0)
    1a08:	e0e7a223          	sw	a4,-508(a5) # 13e04 <ADDR_GPIO>
    1a0c:	000147b7          	lui	a5,0x14
    1a10:	fec42703          	lw	a4,-20(s0)
    1a14:	e0e7a423          	sw	a4,-504(a5) # 13e08 <CSRA_VERSION>
    1a18:	fec42783          	lw	a5,-20(s0)
    1a1c:	00478713          	addi	a4,a5,4
    1a20:	000147b7          	lui	a5,0x14
    1a24:	e0e7a623          	sw	a4,-500(a5) # 13e0c <CSRA_NAME>
    1a28:	fec42783          	lw	a5,-20(s0)
    1a2c:	01078713          	addi	a4,a5,16
    1a30:	000147b7          	lui	a5,0x14
    1a34:	e0e7a823          	sw	a4,-496(a5) # 13e10 <CSRA_DIR>
    1a38:	fec42783          	lw	a5,-20(s0)
    1a3c:	01478713          	addi	a4,a5,20
    1a40:	000147b7          	lui	a5,0x14
    1a44:	e0e7aa23          	sw	a4,-492(a5) # 13e14 <CSRA_INPUT>
    1a48:	fec42783          	lw	a5,-20(s0)
    1a4c:	01878713          	addi	a4,a5,24
    1a50:	000147b7          	lui	a5,0x14
    1a54:	e0e7ac23          	sw	a4,-488(a5) # 13e18 <CSRA_OUTPUT>
    1a58:	fec42783          	lw	a5,-20(s0)
    1a5c:	01c78713          	addi	a4,a5,28
    1a60:	000147b7          	lui	a5,0x14
    1a64:	e0e7ae23          	sw	a4,-484(a5) # 13e1c <CSRA_MASK>
    1a68:	fec42783          	lw	a5,-20(s0)
    1a6c:	02078713          	addi	a4,a5,32
    1a70:	000147b7          	lui	a5,0x14
    1a74:	e2e7a023          	sw	a4,-480(a5) # 13e20 <CSRA_IRQ>
    1a78:	fec42783          	lw	a5,-20(s0)
    1a7c:	02478713          	addi	a4,a5,36
    1a80:	000147b7          	lui	a5,0x14
    1a84:	e2e7a223          	sw	a4,-476(a5) # 13e24 <CSRA_EDGE>
    1a88:	fec42783          	lw	a5,-20(s0)
    1a8c:	02878713          	addi	a4,a5,40
    1a90:	000147b7          	lui	a5,0x14
    1a94:	e2e7a423          	sw	a4,-472(a5) # 13e28 <CSRA_POL>
    1a98:	00000793          	li	a5,0
    1a9c:	00078513          	mv	a0,a5
    1aa0:	01c12403          	lw	s0,28(sp)
    1aa4:	02010113          	addi	sp,sp,32
    1aa8:	00008067          	ret

00001aac <gpio_get_addr>:
    1aac:	ff010113          	addi	sp,sp,-16
    1ab0:	00812623          	sw	s0,12(sp)
    1ab4:	01010413          	addi	s0,sp,16
    1ab8:	000147b7          	lui	a5,0x14
    1abc:	e047a783          	lw	a5,-508(a5) # 13e04 <ADDR_GPIO>
    1ac0:	00078513          	mv	a0,a5
    1ac4:	00c12403          	lw	s0,12(sp)
    1ac8:	01010113          	addi	sp,sp,16
    1acc:	00008067          	ret

00001ad0 <keypad_init>:
    1ad0:	fd010113          	addi	sp,sp,-48
    1ad4:	02112623          	sw	ra,44(sp)
    1ad8:	02812423          	sw	s0,40(sp)
    1adc:	03010413          	addi	s0,sp,48
    1ae0:	fca42e23          	sw	a0,-36(s0)
    1ae4:	000147b7          	lui	a5,0x14
    1ae8:	fdc42703          	lw	a4,-36(s0)
    1aec:	e2e7a623          	sw	a4,-468(a5) # 13e2c <keypad_gpio_addr>
    1af0:	fdc42503          	lw	a0,-36(s0)
    1af4:	efdff0ef          	jal	19f0 <gpio_set_addr>
    1af8:	00f00793          	li	a5,15
    1afc:	fef42623          	sw	a5,-20(s0)
    1b00:	00f00513          	li	a0,15
    1b04:	b7dff0ef          	jal	1680 <gpio_write>
    1b08:	00000693          	li	a3,0
    1b0c:	00000613          	li	a2,0
    1b10:	00000593          	li	a1,0
    1b14:	fec42503          	lw	a0,-20(s0)
    1b18:	b9dff0ef          	jal	16b4 <gpio_init>
    1b1c:	00000013          	nop
    1b20:	02c12083          	lw	ra,44(sp)
    1b24:	02812403          	lw	s0,40(sp)
    1b28:	03010113          	addi	sp,sp,48
    1b2c:	00008067          	ret

00001b30 <keypad_scan>:
    1b30:	fd010113          	addi	sp,sp,-48
    1b34:	02112623          	sw	ra,44(sp)
    1b38:	02812423          	sw	s0,40(sp)
    1b3c:	03010413          	addi	s0,sp,48
    1b40:	000147b7          	lui	a5,0x14
    1b44:	e2c7a783          	lw	a5,-468(a5) # 13e2c <keypad_gpio_addr>
    1b48:	00078513          	mv	a0,a5
    1b4c:	ea5ff0ef          	jal	19f0 <gpio_set_addr>
    1b50:	fe042623          	sw	zero,-20(s0)
    1b54:	0c80006f          	j	1c1c <keypad_scan+0xec>
    1b58:	fec42783          	lw	a5,-20(s0)
    1b5c:	00100713          	li	a4,1
    1b60:	00f717b3          	sll	a5,a4,a5
    1b64:	fff7c793          	not	a5,a5
    1b68:	00f7f793          	andi	a5,a5,15
    1b6c:	fef42223          	sw	a5,-28(s0)
    1b70:	fe442503          	lw	a0,-28(s0)
    1b74:	b0dff0ef          	jal	1680 <gpio_write>
    1b78:	06400793          	li	a5,100
    1b7c:	fcf42c23          	sw	a5,-40(s0)
    1b80:	00000013          	nop
    1b84:	fd842783          	lw	a5,-40(s0)
    1b88:	fff78713          	addi	a4,a5,-1
    1b8c:	fce42c23          	sw	a4,-40(s0)
    1b90:	fe079ae3          	bnez	a5,1b84 <keypad_scan+0x54>
    1b94:	abdff0ef          	jal	1650 <gpio_read>
    1b98:	fea42023          	sw	a0,-32(s0)
    1b9c:	fe042783          	lw	a5,-32(s0)
    1ba0:	0047d793          	srli	a5,a5,0x4
    1ba4:	00f7f793          	andi	a5,a5,15
    1ba8:	fcf42e23          	sw	a5,-36(s0)
    1bac:	fdc42703          	lw	a4,-36(s0)
    1bb0:	00f00793          	li	a5,15
    1bb4:	04f70e63          	beq	a4,a5,1c10 <keypad_scan+0xe0>
    1bb8:	fe042423          	sw	zero,-24(s0)
    1bbc:	0480006f          	j	1c04 <keypad_scan+0xd4>
    1bc0:	fe842783          	lw	a5,-24(s0)
    1bc4:	00100713          	li	a4,1
    1bc8:	00f717b3          	sll	a5,a4,a5
    1bcc:	00078713          	mv	a4,a5
    1bd0:	fdc42783          	lw	a5,-36(s0)
    1bd4:	00f777b3          	and	a5,a4,a5
    1bd8:	02079063          	bnez	a5,1bf8 <keypad_scan+0xc8>
    1bdc:	00f00513          	li	a0,15
    1be0:	aa1ff0ef          	jal	1680 <gpio_write>
    1be4:	fe842783          	lw	a5,-24(s0)
    1be8:	00279713          	slli	a4,a5,0x2
    1bec:	fec42783          	lw	a5,-20(s0)
    1bf0:	00f707b3          	add	a5,a4,a5
    1bf4:	0400006f          	j	1c34 <keypad_scan+0x104>
    1bf8:	fe842783          	lw	a5,-24(s0)
    1bfc:	00178793          	addi	a5,a5,1
    1c00:	fef42423          	sw	a5,-24(s0)
    1c04:	fe842703          	lw	a4,-24(s0)
    1c08:	00300793          	li	a5,3
    1c0c:	fae7dae3          	bge	a5,a4,1bc0 <keypad_scan+0x90>
    1c10:	fec42783          	lw	a5,-20(s0)
    1c14:	00178793          	addi	a5,a5,1
    1c18:	fef42623          	sw	a5,-20(s0)
    1c1c:	fec42703          	lw	a4,-20(s0)
    1c20:	00300793          	li	a5,3
    1c24:	f2e7dae3          	bge	a5,a4,1b58 <keypad_scan+0x28>
    1c28:	00f00513          	li	a0,15
    1c2c:	a55ff0ef          	jal	1680 <gpio_write>
    1c30:	fff00793          	li	a5,-1
    1c34:	00078513          	mv	a0,a5
    1c38:	02c12083          	lw	ra,44(sp)
    1c3c:	02812403          	lw	s0,40(sp)
    1c40:	03010113          	addi	sp,sp,48
    1c44:	00008067          	ret

00001c48 <keypad_get_char>:
    1c48:	fe010113          	addi	sp,sp,-32
    1c4c:	00112e23          	sw	ra,28(sp)
    1c50:	00812c23          	sw	s0,24(sp)
    1c54:	02010413          	addi	s0,sp,32
    1c58:	ed9ff0ef          	jal	1b30 <keypad_scan>
    1c5c:	fea42623          	sw	a0,-20(s0)
    1c60:	fec42783          	lw	a5,-20(s0)
    1c64:	0607c263          	bltz	a5,1cc8 <keypad_get_char+0x80>
    1c68:	fec42703          	lw	a4,-20(s0)
    1c6c:	00f00793          	li	a5,15
    1c70:	04e7cc63          	blt	a5,a4,1cc8 <keypad_get_char+0x80>
    1c74:	fec42783          	lw	a5,-20(s0)
    1c78:	41f7d713          	srai	a4,a5,0x1f
    1c7c:	00377713          	andi	a4,a4,3
    1c80:	00f707b3          	add	a5,a4,a5
    1c84:	4027d793          	srai	a5,a5,0x2
    1c88:	fef42423          	sw	a5,-24(s0)
    1c8c:	fec42703          	lw	a4,-20(s0)
    1c90:	41f75793          	srai	a5,a4,0x1f
    1c94:	01e7d793          	srli	a5,a5,0x1e
    1c98:	00f70733          	add	a4,a4,a5
    1c9c:	00377713          	andi	a4,a4,3
    1ca0:	40f707b3          	sub	a5,a4,a5
    1ca4:	fef42223          	sw	a5,-28(s0)
    1ca8:	3b018713          	addi	a4,gp,944 # 12cc0 <keypad_map>
    1cac:	fe442783          	lw	a5,-28(s0)
    1cb0:	00279793          	slli	a5,a5,0x2
    1cb4:	00f70733          	add	a4,a4,a5
    1cb8:	fe842783          	lw	a5,-24(s0)
    1cbc:	00f707b3          	add	a5,a4,a5
    1cc0:	0007c783          	lbu	a5,0(a5)
    1cc4:	0080006f          	j	1ccc <keypad_get_char+0x84>
    1cc8:	00000793          	li	a5,0
    1ccc:	00078513          	mv	a0,a5
    1cd0:	01c12083          	lw	ra,28(sp)
    1cd4:	01812403          	lw	s0,24(sp)
    1cd8:	02010113          	addi	sp,sp,32
    1cdc:	00008067          	ret

00001ce0 <io_fence>:
    1ce0:	ff010113          	addi	sp,sp,-16
    1ce4:	00812623          	sw	s0,12(sp)
    1ce8:	01010413          	addi	s0,sp,16
    1cec:	0ff0000f          	fence
    1cf0:	00000013          	nop
    1cf4:	00c12403          	lw	s0,12(sp)
    1cf8:	01010113          	addi	sp,sp,16
    1cfc:	00008067          	ret

00001d00 <mmio_read32_safe>:
    1d00:	fd010113          	addi	sp,sp,-48
    1d04:	02112623          	sw	ra,44(sp)
    1d08:	02812423          	sw	s0,40(sp)
    1d0c:	03010413          	addi	s0,sp,48
    1d10:	fca42e23          	sw	a0,-36(s0)
    1d14:	fdc42583          	lw	a1,-36(s0)
    1d18:	3c018513          	addi	a0,gp,960 # 12cd0 <keypad_map+0x10>
    1d1c:	bfdfe0ef          	jal	918 <my_printf>
    1d20:	fc1ff0ef          	jal	1ce0 <io_fence>
    1d24:	fdc42783          	lw	a5,-36(s0)
    1d28:	fef42623          	sw	a5,-20(s0)
    1d2c:	fec42783          	lw	a5,-20(s0)
    1d30:	0007a783          	lw	a5,0(a5)
    1d34:	fef42423          	sw	a5,-24(s0)
    1d38:	fa9ff0ef          	jal	1ce0 <io_fence>
    1d3c:	fe842583          	lw	a1,-24(s0)
    1d40:	3e818513          	addi	a0,gp,1000 # 12cf8 <keypad_map+0x38>
    1d44:	bd5fe0ef          	jal	918 <my_printf>
    1d48:	fe842783          	lw	a5,-24(s0)
    1d4c:	00078513          	mv	a0,a5
    1d50:	02c12083          	lw	ra,44(sp)
    1d54:	02812403          	lw	s0,40(sp)
    1d58:	03010113          	addi	sp,sp,48
    1d5c:	00008067          	ret

00001d60 <i2c_recalc_map>:
    1d60:	ff010113          	addi	sp,sp,-16
    1d64:	00812623          	sw	s0,12(sp)
    1d68:	01010413          	addi	s0,sp,16
    1d6c:	000147b7          	lui	a5,0x14
    1d70:	e307a703          	lw	a4,-464(a5) # 13e30 <ADDR_I2C>
    1d74:	000147b7          	lui	a5,0x14
    1d78:	e4e7a423          	sw	a4,-440(a5) # 13e48 <CSRA_VERSION>
    1d7c:	000147b7          	lui	a5,0x14
    1d80:	e307a783          	lw	a5,-464(a5) # 13e30 <ADDR_I2C>
    1d84:	00478713          	addi	a4,a5,4
    1d88:	000147b7          	lui	a5,0x14
    1d8c:	e4e7a623          	sw	a4,-436(a5) # 13e4c <CSRA_NAME>
    1d90:	000147b7          	lui	a5,0x14
    1d94:	e307a783          	lw	a5,-464(a5) # 13e30 <ADDR_I2C>
    1d98:	00878713          	addi	a4,a5,8
    1d9c:	000147b7          	lui	a5,0x14
    1da0:	e4e7a823          	sw	a4,-432(a5) # 13e50 <CSRA_DATA0>
    1da4:	000147b7          	lui	a5,0x14
    1da8:	e307a783          	lw	a5,-464(a5) # 13e30 <ADDR_I2C>
    1dac:	00c78713          	addi	a4,a5,12
    1db0:	000147b7          	lui	a5,0x14
    1db4:	e4e7aa23          	sw	a4,-428(a5) # 13e54 <CSRA_DATA1>
    1db8:	000147b7          	lui	a5,0x14
    1dbc:	e307a783          	lw	a5,-464(a5) # 13e30 <ADDR_I2C>
    1dc0:	01078713          	addi	a4,a5,16
    1dc4:	000147b7          	lui	a5,0x14
    1dc8:	e4e7ac23          	sw	a4,-424(a5) # 13e58 <CSRA_STATUS>
    1dcc:	000147b7          	lui	a5,0x14
    1dd0:	e307a783          	lw	a5,-464(a5) # 13e30 <ADDR_I2C>
    1dd4:	01478713          	addi	a4,a5,20
    1dd8:	000147b7          	lui	a5,0x14
    1ddc:	e4e7ae23          	sw	a4,-420(a5) # 13e5c <CSRA_DATA2>
    1de0:	000147b7          	lui	a5,0x14
    1de4:	00100713          	li	a4,1
    1de8:	e6e78023          	sb	a4,-416(a5) # 13e60 <i2c_map_ready>
    1dec:	00000013          	nop
    1df0:	00c12403          	lw	s0,12(sp)
    1df4:	01010113          	addi	sp,sp,16
    1df8:	00008067          	ret

00001dfc <i2c_ensure_mapped>:
    1dfc:	ff010113          	addi	sp,sp,-16
    1e00:	00112623          	sw	ra,12(sp)
    1e04:	00812423          	sw	s0,8(sp)
    1e08:	01010413          	addi	s0,sp,16
    1e0c:	000147b7          	lui	a5,0x14
    1e10:	e607c783          	lbu	a5,-416(a5) # 13e60 <i2c_map_ready>
    1e14:	00079463          	bnez	a5,1e1c <i2c_ensure_mapped+0x20>
    1e18:	f49ff0ef          	jal	1d60 <i2c_recalc_map>
    1e1c:	00000013          	nop
    1e20:	00c12083          	lw	ra,12(sp)
    1e24:	00812403          	lw	s0,8(sp)
    1e28:	01010113          	addi	sp,sp,16
    1e2c:	00008067          	ret

00001e30 <__i2c_api_ctor>:
    1e30:	ff010113          	addi	sp,sp,-16
    1e34:	00112623          	sw	ra,12(sp)
    1e38:	00812423          	sw	s0,8(sp)
    1e3c:	01010413          	addi	s0,sp,16
    1e40:	f21ff0ef          	jal	1d60 <i2c_recalc_map>
    1e44:	00000013          	nop
    1e48:	00c12083          	lw	ra,12(sp)
    1e4c:	00812403          	lw	s0,8(sp)
    1e50:	01010113          	addi	sp,sp,16
    1e54:	00008067          	ret

00001e58 <i2c_read_data>:
    1e58:	ff010113          	addi	sp,sp,-16
    1e5c:	00112623          	sw	ra,12(sp)
    1e60:	00812423          	sw	s0,8(sp)
    1e64:	01010413          	addi	s0,sp,16
    1e68:	f95ff0ef          	jal	1dfc <i2c_ensure_mapped>
    1e6c:	000147b7          	lui	a5,0x14
    1e70:	e5c7a783          	lw	a5,-420(a5) # 13e5c <CSRA_DATA2>
    1e74:	00078513          	mv	a0,a5
    1e78:	e89ff0ef          	jal	1d00 <mmio_read32_safe>
    1e7c:	00050793          	mv	a5,a0
    1e80:	00078513          	mv	a0,a5
    1e84:	00c12083          	lw	ra,12(sp)
    1e88:	00812403          	lw	s0,8(sp)
    1e8c:	01010113          	addi	sp,sp,16
    1e90:	00008067          	ret

00001e94 <i2c_write_data>:
    1e94:	fe010113          	addi	sp,sp,-32
    1e98:	00112e23          	sw	ra,28(sp)
    1e9c:	00812c23          	sw	s0,24(sp)
    1ea0:	02010413          	addi	s0,sp,32
    1ea4:	fea42623          	sw	a0,-20(s0)
    1ea8:	f55ff0ef          	jal	1dfc <i2c_ensure_mapped>
    1eac:	000147b7          	lui	a5,0x14
    1eb0:	e547a783          	lw	a5,-428(a5) # 13e54 <CSRA_DATA1>
    1eb4:	00078713          	mv	a4,a5
    1eb8:	fec42783          	lw	a5,-20(s0)
    1ebc:	00f72023          	sw	a5,0(a4)
    1ec0:	00000013          	nop
    1ec4:	01c12083          	lw	ra,28(sp)
    1ec8:	01812403          	lw	s0,24(sp)
    1ecc:	02010113          	addi	sp,sp,32
    1ed0:	00008067          	ret

00001ed4 <i2c_get_status>:
    1ed4:	fe010113          	addi	sp,sp,-32
    1ed8:	00112e23          	sw	ra,28(sp)
    1edc:	00812c23          	sw	s0,24(sp)
    1ee0:	02010413          	addi	s0,sp,32
    1ee4:	40c18513          	addi	a0,gp,1036 # 12d1c <keypad_map+0x5c>
    1ee8:	a31fe0ef          	jal	918 <my_printf>
    1eec:	f11ff0ef          	jal	1dfc <i2c_ensure_mapped>
    1ef0:	41c18513          	addi	a0,gp,1052 # 12d2c <keypad_map+0x6c>
    1ef4:	a25fe0ef          	jal	918 <my_printf>
    1ef8:	000147b7          	lui	a5,0x14
    1efc:	e587a783          	lw	a5,-424(a5) # 13e58 <CSRA_STATUS>
    1f00:	00078513          	mv	a0,a5
    1f04:	dfdff0ef          	jal	1d00 <mmio_read32_safe>
    1f08:	fea42623          	sw	a0,-20(s0)
    1f0c:	fec42583          	lw	a1,-20(s0)
    1f10:	43018513          	addi	a0,gp,1072 # 12d40 <keypad_map+0x80>
    1f14:	a05fe0ef          	jal	918 <my_printf>
    1f18:	fec42783          	lw	a5,-20(s0)
    1f1c:	00078513          	mv	a0,a5
    1f20:	01c12083          	lw	ra,28(sp)
    1f24:	01812403          	lw	s0,24(sp)
    1f28:	02010113          	addi	sp,sp,32
    1f2c:	00008067          	ret

00001f30 <i2c_start_simple>:
    1f30:	fd010113          	addi	sp,sp,-48
    1f34:	02112623          	sw	ra,44(sp)
    1f38:	02812423          	sw	s0,40(sp)
    1f3c:	03010413          	addi	s0,sp,48
    1f40:	00050793          	mv	a5,a0
    1f44:	fcf40fa3          	sb	a5,-33(s0)
    1f48:	00058793          	mv	a5,a1
    1f4c:	fcf40f23          	sb	a5,-34(s0)
    1f50:	00060793          	mv	a5,a2
    1f54:	fcf40ea3          	sb	a5,-35(s0)
    1f58:	00068793          	mv	a5,a3
    1f5c:	fcf40e23          	sb	a5,-36(s0)
    1f60:	00070793          	mv	a5,a4
    1f64:	fcf40da3          	sb	a5,-37(s0)
    1f68:	e95ff0ef          	jal	1dfc <i2c_ensure_mapped>
    1f6c:	fe042623          	sw	zero,-20(s0)
    1f70:	fdf44783          	lbu	a5,-33(s0)
    1f74:	00179793          	slli	a5,a5,0x1
    1f78:	0ff7f793          	zext.b	a5,a5
    1f7c:	fec42703          	lw	a4,-20(s0)
    1f80:	00f767b3          	or	a5,a4,a5
    1f84:	fef42623          	sw	a5,-20(s0)
    1f88:	fdd44783          	lbu	a5,-35(s0)
    1f8c:	0017f793          	andi	a5,a5,1
    1f90:	fec42703          	lw	a4,-20(s0)
    1f94:	00f767b3          	or	a5,a4,a5
    1f98:	fef42623          	sw	a5,-20(s0)
    1f9c:	fde44783          	lbu	a5,-34(s0)
    1fa0:	00879793          	slli	a5,a5,0x8
    1fa4:	fec42703          	lw	a4,-20(s0)
    1fa8:	00f767b3          	or	a5,a4,a5
    1fac:	fef42623          	sw	a5,-20(s0)
    1fb0:	fdc44783          	lbu	a5,-36(s0)
    1fb4:	01079713          	slli	a4,a5,0x10
    1fb8:	000107b7          	lui	a5,0x10
    1fbc:	00f777b3          	and	a5,a4,a5
    1fc0:	fec42703          	lw	a4,-20(s0)
    1fc4:	00f767b3          	or	a5,a4,a5
    1fc8:	fef42623          	sw	a5,-20(s0)
    1fcc:	fdb44783          	lbu	a5,-37(s0)
    1fd0:	01179713          	slli	a4,a5,0x11
    1fd4:	000207b7          	lui	a5,0x20
    1fd8:	00f777b3          	and	a5,a4,a5
    1fdc:	fec42703          	lw	a4,-20(s0)
    1fe0:	00f767b3          	or	a5,a4,a5
    1fe4:	fef42623          	sw	a5,-20(s0)
    1fe8:	fec42703          	lw	a4,-20(s0)
    1fec:	800007b7          	lui	a5,0x80000
    1ff0:	00f767b3          	or	a5,a4,a5
    1ff4:	fef42623          	sw	a5,-20(s0)
    1ff8:	000147b7          	lui	a5,0x14
    1ffc:	e507a783          	lw	a5,-432(a5) # 13e50 <CSRA_DATA0>
    2000:	00078713          	mv	a4,a5
    2004:	fec42783          	lw	a5,-20(s0)
    2008:	00f72023          	sw	a5,0(a4)
    200c:	00000013          	nop
    2010:	02c12083          	lw	ra,44(sp)
    2014:	02812403          	lw	s0,40(sp)
    2018:	03010113          	addi	sp,sp,48
    201c:	00008067          	ret

00002020 <i2c_csr>:
    2020:	fe010113          	addi	sp,sp,-32
    2024:	00112e23          	sw	ra,28(sp)
    2028:	00812c23          	sw	s0,24(sp)
    202c:	02010413          	addi	s0,sp,32
    2030:	dcdff0ef          	jal	1dfc <i2c_ensure_mapped>
    2034:	44818513          	addi	a0,gp,1096 # 12d58 <keypad_map+0x98>
    2038:	8e1fe0ef          	jal	918 <my_printf>
    203c:	000147b7          	lui	a5,0x14
    2040:	e487a783          	lw	a5,-440(a5) # 13e48 <CSRA_VERSION>
    2044:	00078513          	mv	a0,a5
    2048:	cb9ff0ef          	jal	1d00 <mmio_read32_safe>
    204c:	fea42623          	sw	a0,-20(s0)
    2050:	fec42583          	lw	a1,-20(s0)
    2054:	45018513          	addi	a0,gp,1104 # 12d60 <keypad_map+0xa0>
    2058:	8c1fe0ef          	jal	918 <my_printf>
    205c:	000147b7          	lui	a5,0x14
    2060:	e4c7a783          	lw	a5,-436(a5) # 13e4c <CSRA_NAME>
    2064:	00078513          	mv	a0,a5
    2068:	c99ff0ef          	jal	1d00 <mmio_read32_safe>
    206c:	fea42623          	sw	a0,-20(s0)
    2070:	fec42583          	lw	a1,-20(s0)
    2074:	46818513          	addi	a0,gp,1128 # 12d78 <keypad_map+0xb8>
    2078:	8a1fe0ef          	jal	918 <my_printf>
    207c:	000147b7          	lui	a5,0x14
    2080:	e507a783          	lw	a5,-432(a5) # 13e50 <CSRA_DATA0>
    2084:	00078513          	mv	a0,a5
    2088:	c79ff0ef          	jal	1d00 <mmio_read32_safe>
    208c:	fea42623          	sw	a0,-20(s0)
    2090:	fec42583          	lw	a1,-20(s0)
    2094:	48018513          	addi	a0,gp,1152 # 12d90 <keypad_map+0xd0>
    2098:	881fe0ef          	jal	918 <my_printf>
    209c:	000147b7          	lui	a5,0x14
    20a0:	e547a783          	lw	a5,-428(a5) # 13e54 <CSRA_DATA1>
    20a4:	00078513          	mv	a0,a5
    20a8:	c59ff0ef          	jal	1d00 <mmio_read32_safe>
    20ac:	fea42623          	sw	a0,-20(s0)
    20b0:	fec42583          	lw	a1,-20(s0)
    20b4:	49818513          	addi	a0,gp,1176 # 12da8 <keypad_map+0xe8>
    20b8:	861fe0ef          	jal	918 <my_printf>
    20bc:	000147b7          	lui	a5,0x14
    20c0:	e587a783          	lw	a5,-424(a5) # 13e58 <CSRA_STATUS>
    20c4:	00078513          	mv	a0,a5
    20c8:	c39ff0ef          	jal	1d00 <mmio_read32_safe>
    20cc:	fea42623          	sw	a0,-20(s0)
    20d0:	fec42583          	lw	a1,-20(s0)
    20d4:	4b018513          	addi	a0,gp,1200 # 12dc0 <keypad_map+0x100>
    20d8:	841fe0ef          	jal	918 <my_printf>
    20dc:	000147b7          	lui	a5,0x14
    20e0:	e5c7a783          	lw	a5,-420(a5) # 13e5c <CSRA_DATA2>
    20e4:	00078513          	mv	a0,a5
    20e8:	c19ff0ef          	jal	1d00 <mmio_read32_safe>
    20ec:	fea42623          	sw	a0,-20(s0)
    20f0:	fec42583          	lw	a1,-20(s0)
    20f4:	4c818513          	addi	a0,gp,1224 # 12dd8 <keypad_map+0x118>
    20f8:	821fe0ef          	jal	918 <my_printf>
    20fc:	00000013          	nop
    2100:	01c12083          	lw	ra,28(sp)
    2104:	01812403          	lw	s0,24(sp)
    2108:	02010113          	addi	sp,sp,32
    210c:	00008067          	ret

00002110 <i2c_set_addr>:
    2110:	fe010113          	addi	sp,sp,-32
    2114:	00112e23          	sw	ra,28(sp)
    2118:	00812c23          	sw	s0,24(sp)
    211c:	02010413          	addi	s0,sp,32
    2120:	fea42623          	sw	a0,-20(s0)
    2124:	000147b7          	lui	a5,0x14
    2128:	fec42703          	lw	a4,-20(s0)
    212c:	e2e7a823          	sw	a4,-464(a5) # 13e30 <ADDR_I2C>
    2130:	c31ff0ef          	jal	1d60 <i2c_recalc_map>
    2134:	00000793          	li	a5,0
    2138:	00078513          	mv	a0,a5
    213c:	01c12083          	lw	ra,28(sp)
    2140:	01812403          	lw	s0,24(sp)
    2144:	02010113          	addi	sp,sp,32
    2148:	00008067          	ret

0000214c <i2c_get_addr>:
    214c:	ff010113          	addi	sp,sp,-16
    2150:	00812623          	sw	s0,12(sp)
    2154:	01010413          	addi	s0,sp,16
    2158:	000147b7          	lui	a5,0x14
    215c:	e307a783          	lw	a5,-464(a5) # 13e30 <ADDR_I2C>
    2160:	00078513          	mv	a0,a5
    2164:	00c12403          	lw	s0,12(sp)
    2168:	01010113          	addi	sp,sp,16
    216c:	00008067          	ret

00002170 <i2c_delay_ms>:
    2170:	fd010113          	addi	sp,sp,-48
    2174:	02812623          	sw	s0,44(sp)
    2178:	03010413          	addi	s0,sp,48
    217c:	fca42e23          	sw	a0,-36(s0)
    2180:	fdc42703          	lw	a4,-36(s0)
    2184:	000027b7          	lui	a5,0x2
    2188:	71078793          	addi	a5,a5,1808 # 2710 <_vfprintf_r+0x200>
    218c:	02f707b3          	mul	a5,a4,a5
    2190:	fef42623          	sw	a5,-20(s0)
    2194:	00000013          	nop
    2198:	fec42783          	lw	a5,-20(s0)
    219c:	fff78713          	addi	a4,a5,-1
    21a0:	fee42623          	sw	a4,-20(s0)
    21a4:	fe079ae3          	bnez	a5,2198 <i2c_delay_ms+0x28>
    21a8:	00000013          	nop
    21ac:	00000013          	nop
    21b0:	02c12403          	lw	s0,44(sp)
    21b4:	03010113          	addi	sp,sp,48
    21b8:	00008067          	ret

000021bc <i2c_eeprom_read_bytes>:
    21bc:	fd010113          	addi	sp,sp,-48
    21c0:	02112623          	sw	ra,44(sp)
    21c4:	02812423          	sw	s0,40(sp)
    21c8:	03010413          	addi	s0,sp,48
    21cc:	00050793          	mv	a5,a0
    21d0:	fcb42c23          	sw	a1,-40(s0)
    21d4:	00060713          	mv	a4,a2
    21d8:	fcf40fa3          	sb	a5,-33(s0)
    21dc:	00070793          	mv	a5,a4
    21e0:	fcf40f23          	sb	a5,-34(s0)
    21e4:	fd842783          	lw	a5,-40(s0)
    21e8:	00078663          	beqz	a5,21f4 <i2c_eeprom_read_bytes+0x38>
    21ec:	fde44783          	lbu	a5,-34(s0)
    21f0:	00079663          	bnez	a5,21fc <i2c_eeprom_read_bytes+0x40>
    21f4:	fff00793          	li	a5,-1
    21f8:	0700006f          	j	2268 <i2c_eeprom_read_bytes+0xac>
    21fc:	fdf44783          	lbu	a5,-33(s0)
    2200:	00000713          	li	a4,0
    2204:	00000693          	li	a3,0
    2208:	00000613          	li	a2,0
    220c:	00078593          	mv	a1,a5
    2210:	05000513          	li	a0,80
    2214:	d1dff0ef          	jal	1f30 <i2c_start_simple>
    2218:	00100513          	li	a0,1
    221c:	f55ff0ef          	jal	2170 <i2c_delay_ms>
    2220:	fdf44783          	lbu	a5,-33(s0)
    2224:	00000713          	li	a4,0
    2228:	00100693          	li	a3,1
    222c:	00100613          	li	a2,1
    2230:	00078593          	mv	a1,a5
    2234:	05000513          	li	a0,80
    2238:	cf9ff0ef          	jal	1f30 <i2c_start_simple>
    223c:	00100513          	li	a0,1
    2240:	f31ff0ef          	jal	2170 <i2c_delay_ms>
    2244:	fde44783          	lbu	a5,-34(s0)
    2248:	00078e63          	beqz	a5,2264 <i2c_eeprom_read_bytes+0xa8>
    224c:	c0dff0ef          	jal	1e58 <i2c_read_data>
    2250:	fea42623          	sw	a0,-20(s0)
    2254:	fec42783          	lw	a5,-20(s0)
    2258:	0ff7f713          	zext.b	a4,a5
    225c:	fd842783          	lw	a5,-40(s0)
    2260:	00e78023          	sb	a4,0(a5)
    2264:	00000793          	li	a5,0
    2268:	00078513          	mv	a0,a5
    226c:	02c12083          	lw	ra,44(sp)
    2270:	02812403          	lw	s0,40(sp)
    2274:	03010113          	addi	sp,sp,48
    2278:	00008067          	ret

0000227c <i2c_eeprom_write_bytes>:
    227c:	fe010113          	addi	sp,sp,-32
    2280:	00112e23          	sw	ra,28(sp)
    2284:	00812c23          	sw	s0,24(sp)
    2288:	02010413          	addi	s0,sp,32
    228c:	00050793          	mv	a5,a0
    2290:	feb42423          	sw	a1,-24(s0)
    2294:	00060713          	mv	a4,a2
    2298:	fef407a3          	sb	a5,-17(s0)
    229c:	00070793          	mv	a5,a4
    22a0:	fef40723          	sb	a5,-18(s0)
    22a4:	fe842783          	lw	a5,-24(s0)
    22a8:	00078663          	beqz	a5,22b4 <i2c_eeprom_write_bytes+0x38>
    22ac:	fee44783          	lbu	a5,-18(s0)
    22b0:	00079663          	bnez	a5,22bc <i2c_eeprom_write_bytes+0x40>
    22b4:	fff00793          	li	a5,-1
    22b8:	03c0006f          	j	22f4 <i2c_eeprom_write_bytes+0x78>
    22bc:	fe842783          	lw	a5,-24(s0)
    22c0:	0007c783          	lbu	a5,0(a5)
    22c4:	00078513          	mv	a0,a5
    22c8:	bcdff0ef          	jal	1e94 <i2c_write_data>
    22cc:	fef44783          	lbu	a5,-17(s0)
    22d0:	00000713          	li	a4,0
    22d4:	00000693          	li	a3,0
    22d8:	00000613          	li	a2,0
    22dc:	00078593          	mv	a1,a5
    22e0:	05000513          	li	a0,80
    22e4:	c4dff0ef          	jal	1f30 <i2c_start_simple>
    22e8:	00a00513          	li	a0,10
    22ec:	e85ff0ef          	jal	2170 <i2c_delay_ms>
    22f0:	00000793          	li	a5,0
    22f4:	00078513          	mv	a0,a5
    22f8:	01c12083          	lw	ra,28(sp)
    22fc:	01812403          	lw	s0,24(sp)
    2300:	02010113          	addi	sp,sp,32
    2304:	00008067          	ret

00002308 <_close>:
    2308:	fe010113          	addi	sp,sp,-32
    230c:	00812e23          	sw	s0,28(sp)
    2310:	02010413          	addi	s0,sp,32
    2314:	fea42623          	sw	a0,-20(s0)
    2318:	fff00793          	li	a5,-1
    231c:	00078513          	mv	a0,a5
    2320:	01c12403          	lw	s0,28(sp)
    2324:	02010113          	addi	sp,sp,32
    2328:	00008067          	ret

0000232c <_lseek>:
    232c:	fe010113          	addi	sp,sp,-32
    2330:	00812e23          	sw	s0,28(sp)
    2334:	02010413          	addi	s0,sp,32
    2338:	fea42623          	sw	a0,-20(s0)
    233c:	feb42423          	sw	a1,-24(s0)
    2340:	fec42223          	sw	a2,-28(s0)
    2344:	00000793          	li	a5,0
    2348:	00078513          	mv	a0,a5
    234c:	01c12403          	lw	s0,28(sp)
    2350:	02010113          	addi	sp,sp,32
    2354:	00008067          	ret

00002358 <_read>:
    2358:	fe010113          	addi	sp,sp,-32
    235c:	00812e23          	sw	s0,28(sp)
    2360:	02010413          	addi	s0,sp,32
    2364:	fea42623          	sw	a0,-20(s0)
    2368:	feb42423          	sw	a1,-24(s0)
    236c:	fec42223          	sw	a2,-28(s0)
    2370:	00000793          	li	a5,0
    2374:	00078513          	mv	a0,a5
    2378:	01c12403          	lw	s0,28(sp)
    237c:	02010113          	addi	sp,sp,32
    2380:	00008067          	ret

00002384 <_write>:
    2384:	fe010113          	addi	sp,sp,-32
    2388:	00812e23          	sw	s0,28(sp)
    238c:	02010413          	addi	s0,sp,32
    2390:	fea42623          	sw	a0,-20(s0)
    2394:	feb42423          	sw	a1,-24(s0)
    2398:	fec42223          	sw	a2,-28(s0)
    239c:	fe442783          	lw	a5,-28(s0)
    23a0:	00078513          	mv	a0,a5
    23a4:	01c12403          	lw	s0,28(sp)
    23a8:	02010113          	addi	sp,sp,32
    23ac:	00008067          	ret

000023b0 <_fstat>:
    23b0:	fe010113          	addi	sp,sp,-32
    23b4:	00812e23          	sw	s0,28(sp)
    23b8:	02010413          	addi	s0,sp,32
    23bc:	fea42623          	sw	a0,-20(s0)
    23c0:	feb42423          	sw	a1,-24(s0)
    23c4:	fff00793          	li	a5,-1
    23c8:	00078513          	mv	a0,a5
    23cc:	01c12403          	lw	s0,28(sp)
    23d0:	02010113          	addi	sp,sp,32
    23d4:	00008067          	ret

000023d8 <_isatty>:
    23d8:	fe010113          	addi	sp,sp,-32
    23dc:	00812e23          	sw	s0,28(sp)
    23e0:	02010413          	addi	s0,sp,32
    23e4:	fea42623          	sw	a0,-20(s0)
    23e8:	00000793          	li	a5,0
    23ec:	00078513          	mv	a0,a5
    23f0:	01c12403          	lw	s0,28(sp)
    23f4:	02010113          	addi	sp,sp,32
    23f8:	00008067          	ret

000023fc <_sbrk>:
    23fc:	fe010113          	addi	sp,sp,-32
    2400:	00812e23          	sw	s0,28(sp)
    2404:	02010413          	addi	s0,sp,32
    2408:	fea42623          	sw	a0,-20(s0)
    240c:	fff00793          	li	a5,-1
    2410:	00078513          	mv	a0,a5
    2414:	01c12403          	lw	s0,28(sp)
    2418:	02010113          	addi	sp,sp,32
    241c:	00008067          	ret

00002420 <_exit>:
    2420:	fe010113          	addi	sp,sp,-32
    2424:	00812e23          	sw	s0,28(sp)
    2428:	02010413          	addi	s0,sp,32
    242c:	fea42623          	sw	a0,-20(s0)
    2430:	00000013          	nop
    2434:	ffdff06f          	j	2430 <_exit+0x10>

00002438 <_kill>:
    2438:	fe010113          	addi	sp,sp,-32
    243c:	00812e23          	sw	s0,28(sp)
    2440:	02010413          	addi	s0,sp,32
    2444:	fea42623          	sw	a0,-20(s0)
    2448:	feb42423          	sw	a1,-24(s0)
    244c:	fff00793          	li	a5,-1
    2450:	00078513          	mv	a0,a5
    2454:	01c12403          	lw	s0,28(sp)
    2458:	02010113          	addi	sp,sp,32
    245c:	00008067          	ret

00002460 <_getpid>:
    2460:	ff010113          	addi	sp,sp,-16
    2464:	00812623          	sw	s0,12(sp)
    2468:	01010413          	addi	s0,sp,16
    246c:	00100793          	li	a5,1
    2470:	00078513          	mv	a0,a5
    2474:	00c12403          	lw	s0,12(sp)
    2478:	01010113          	addi	sp,sp,16
    247c:	00008067          	ret

00002480 <_printf_r>:
    2480:	fc010113          	addi	sp,sp,-64
    2484:	02c12423          	sw	a2,40(sp)
    2488:	02d12623          	sw	a3,44(sp)
    248c:	02e12823          	sw	a4,48(sp)
    2490:	02f12a23          	sw	a5,52(sp)
    2494:	03012c23          	sw	a6,56(sp)
    2498:	03112e23          	sw	a7,60(sp)
    249c:	00058613          	mv	a2,a1
    24a0:	00852583          	lw	a1,8(a0) # 90040008 <_memory_end+0x90020008>
    24a4:	02810693          	addi	a3,sp,40
    24a8:	00112e23          	sw	ra,28(sp)
    24ac:	00d12623          	sw	a3,12(sp)
    24b0:	060000ef          	jal	2510 <_vfprintf_r>
    24b4:	01c12083          	lw	ra,28(sp)
    24b8:	04010113          	addi	sp,sp,64
    24bc:	00008067          	ret

000024c0 <printf>:
    24c0:	00014337          	lui	t1,0x14
    24c4:	e3432303          	lw	t1,-460(t1) # 13e34 <_impure_ptr>
    24c8:	fc010113          	addi	sp,sp,-64
    24cc:	02c12423          	sw	a2,40(sp)
    24d0:	02d12623          	sw	a3,44(sp)
    24d4:	02b12223          	sw	a1,36(sp)
    24d8:	02e12823          	sw	a4,48(sp)
    24dc:	02f12a23          	sw	a5,52(sp)
    24e0:	03012c23          	sw	a6,56(sp)
    24e4:	03112e23          	sw	a7,60(sp)
    24e8:	00832583          	lw	a1,8(t1)
    24ec:	02410693          	addi	a3,sp,36
    24f0:	00050613          	mv	a2,a0
    24f4:	00030513          	mv	a0,t1
    24f8:	00112e23          	sw	ra,28(sp)
    24fc:	00d12623          	sw	a3,12(sp)
    2500:	010000ef          	jal	2510 <_vfprintf_r>
    2504:	01c12083          	lw	ra,28(sp)
    2508:	04010113          	addi	sp,sp,64
    250c:	00008067          	ret

00002510 <_vfprintf_r>:
    2510:	e3010113          	addi	sp,sp,-464
    2514:	1c112623          	sw	ra,460(sp)
    2518:	1c812423          	sw	s0,456(sp)
    251c:	1c912223          	sw	s1,452(sp)
    2520:	1b612823          	sw	s6,432(sp)
    2524:	00058493          	mv	s1,a1
    2528:	00060b13          	mv	s6,a2
    252c:	00d12a23          	sw	a3,20(sp)
    2530:	00050413          	mv	s0,a0
    2534:	00a12423          	sw	a0,8(sp)
    2538:	229030ef          	jal	5f60 <_localeconv_r>
    253c:	00052703          	lw	a4,0(a0)
    2540:	00070513          	mv	a0,a4
    2544:	02e12823          	sw	a4,48(sp)
    2548:	048040ef          	jal	6590 <strlen>
    254c:	02a12623          	sw	a0,44(sp)
    2550:	0c012823          	sw	zero,208(sp)
    2554:	0c012a23          	sw	zero,212(sp)
    2558:	0c012c23          	sw	zero,216(sp)
    255c:	0c012e23          	sw	zero,220(sp)
    2560:	00040863          	beqz	s0,2570 <_vfprintf_r+0x60>
    2564:	03442703          	lw	a4,52(s0)
    2568:	00071463          	bnez	a4,2570 <_vfprintf_r+0x60>
    256c:	0fd0106f          	j	3e68 <_vfprintf_r+0x1958>
    2570:	00c49683          	lh	a3,12(s1)
    2574:	0644a703          	lw	a4,100(s1)
    2578:	01269613          	slli	a2,a3,0x12
    257c:	02064063          	bltz	a2,259c <_vfprintf_r+0x8c>
    2580:	ffffe637          	lui	a2,0xffffe
    2584:	fff60613          	addi	a2,a2,-1 # ffffdfff <_memory_end+0xfffddfff>
    2588:	000025b7          	lui	a1,0x2
    258c:	00b6e6b3          	or	a3,a3,a1
    2590:	00c77733          	and	a4,a4,a2
    2594:	00d49623          	sh	a3,12(s1)
    2598:	06e4a223          	sw	a4,100(s1)
    259c:	01271693          	slli	a3,a4,0x12
    25a0:	0006d463          	bgez	a3,25a8 <_vfprintf_r+0x98>
    25a4:	3bc0206f          	j	4960 <_vfprintf_r+0x2450>
    25a8:	00c49703          	lh	a4,12(s1)
    25ac:	00877693          	andi	a3,a4,8
    25b0:	30068063          	beqz	a3,28b0 <_vfprintf_r+0x3a0>
    25b4:	0104a683          	lw	a3,16(s1)
    25b8:	2e068c63          	beqz	a3,28b0 <_vfprintf_r+0x3a0>
    25bc:	01a77713          	andi	a4,a4,26
    25c0:	00a00693          	li	a3,10
    25c4:	30d70863          	beq	a4,a3,28d4 <_vfprintf_r+0x3c4>
    25c8:	1b312e23          	sw	s3,444(sp)
    25cc:	1b412c23          	sw	s4,440(sp)
    25d0:	1ba12023          	sw	s10,416(sp)
    25d4:	1d212023          	sw	s2,448(sp)
    25d8:	1b512a23          	sw	s5,436(sp)
    25dc:	1b712623          	sw	s7,428(sp)
    25e0:	1b812423          	sw	s8,424(sp)
    25e4:	1b912223          	sw	s9,420(sp)
    25e8:	19b12e23          	sw	s11,412(sp)
    25ec:	000b0d13          	mv	s10,s6
    25f0:	69418793          	addi	a5,gp,1684 # 12fa4 <keypad_map+0x2e4>
    25f4:	000d4703          	lbu	a4,0(s10)
    25f8:	0ec10993          	addi	s3,sp,236
    25fc:	00013a37          	lui	s4,0x13
    2600:	0d312223          	sw	s3,196(sp)
    2604:	0c012623          	sw	zero,204(sp)
    2608:	0c012423          	sw	zero,200(sp)
    260c:	02012023          	sw	zero,32(sp)
    2610:	02012a23          	sw	zero,52(sp)
    2614:	04012023          	sw	zero,64(sp)
    2618:	02012e23          	sw	zero,60(sp)
    261c:	04012423          	sw	zero,72(sp)
    2620:	04012223          	sw	zero,68(sp)
    2624:	00012623          	sw	zero,12(sp)
    2628:	00f12c23          	sw	a5,24(sp)
    262c:	00098413          	mv	s0,s3
    2630:	1a8a0a13          	addi	s4,s4,424 # 131a8 <zeroes.0>
    2634:	22070063          	beqz	a4,2854 <_vfprintf_r+0x344>
    2638:	000d0913          	mv	s2,s10
    263c:	02500693          	li	a3,37
    2640:	3ed70a63          	beq	a4,a3,2a34 <_vfprintf_r+0x524>
    2644:	00194703          	lbu	a4,1(s2)
    2648:	00190913          	addi	s2,s2,1
    264c:	fe071ae3          	bnez	a4,2640 <_vfprintf_r+0x130>
    2650:	41a90ab3          	sub	s5,s2,s10
    2654:	21a90063          	beq	s2,s10,2854 <_vfprintf_r+0x344>
    2658:	0cc12683          	lw	a3,204(sp)
    265c:	0c812703          	lw	a4,200(sp)
    2660:	01a42023          	sw	s10,0(s0)
    2664:	015686b3          	add	a3,a3,s5
    2668:	00170713          	addi	a4,a4,1
    266c:	01542223          	sw	s5,4(s0)
    2670:	0cd12623          	sw	a3,204(sp)
    2674:	0ce12423          	sw	a4,200(sp)
    2678:	00700693          	li	a3,7
    267c:	00840413          	addi	s0,s0,8
    2680:	3ce6c263          	blt	a3,a4,2a44 <_vfprintf_r+0x534>
    2684:	00c12783          	lw	a5,12(sp)
    2688:	00094703          	lbu	a4,0(s2)
    268c:	015787b3          	add	a5,a5,s5
    2690:	00f12623          	sw	a5,12(sp)
    2694:	1c070063          	beqz	a4,2854 <_vfprintf_r+0x344>
    2698:	00194883          	lbu	a7,1(s2)
    269c:	0a0103a3          	sb	zero,167(sp)
    26a0:	00190913          	addi	s2,s2,1
    26a4:	fff00a93          	li	s5,-1
    26a8:	00000b93          	li	s7,0
    26ac:	00000c93          	li	s9,0
    26b0:	05a00b13          	li	s6,90
    26b4:	00190913          	addi	s2,s2,1
    26b8:	fe088793          	addi	a5,a7,-32
    26bc:	04fb6663          	bltu	s6,a5,2708 <_vfprintf_r+0x1f8>
    26c0:	01812703          	lw	a4,24(sp)
    26c4:	00279793          	slli	a5,a5,0x2
    26c8:	00e787b3          	add	a5,a5,a4
    26cc:	0007a783          	lw	a5,0(a5)
    26d0:	00078067          	jr	a5
    26d4:	00000b93          	li	s7,0
    26d8:	fd088793          	addi	a5,a7,-48
    26dc:	00900693          	li	a3,9
    26e0:	00094883          	lbu	a7,0(s2)
    26e4:	002b9713          	slli	a4,s7,0x2
    26e8:	01770bb3          	add	s7,a4,s7
    26ec:	001b9b93          	slli	s7,s7,0x1
    26f0:	01778bb3          	add	s7,a5,s7
    26f4:	fd088793          	addi	a5,a7,-48
    26f8:	00190913          	addi	s2,s2,1
    26fc:	fef6f2e3          	bgeu	a3,a5,26e0 <_vfprintf_r+0x1d0>
    2700:	fe088793          	addi	a5,a7,-32
    2704:	fafb7ee3          	bgeu	s6,a5,26c0 <_vfprintf_r+0x1b0>
    2708:	14088663          	beqz	a7,2854 <_vfprintf_r+0x344>
    270c:	13110623          	sb	a7,300(sp)
    2710:	0a0103a3          	sb	zero,167(sp)
    2714:	00100d93          	li	s11,1
    2718:	00100b13          	li	s6,1
    271c:	12c10d13          	addi	s10,sp,300
    2720:	00012823          	sw	zero,16(sp)
    2724:	00000a93          	li	s5,0
    2728:	02012423          	sw	zero,40(sp)
    272c:	02012223          	sw	zero,36(sp)
    2730:	00012e23          	sw	zero,28(sp)
    2734:	002cf293          	andi	t0,s9,2
    2738:	00028463          	beqz	t0,2740 <_vfprintf_r+0x230>
    273c:	002d8d93          	addi	s11,s11,2
    2740:	084cff93          	andi	t6,s9,132
    2744:	0cc12603          	lw	a2,204(sp)
    2748:	000f9663          	bnez	t6,2754 <_vfprintf_r+0x244>
    274c:	41bb8733          	sub	a4,s7,s11
    2750:	46e044e3          	bgtz	a4,33b8 <_vfprintf_r+0xea8>
    2754:	0a714703          	lbu	a4,167(sp)
    2758:	02070a63          	beqz	a4,278c <_vfprintf_r+0x27c>
    275c:	0c812703          	lw	a4,200(sp)
    2760:	0a710593          	addi	a1,sp,167
    2764:	00b42023          	sw	a1,0(s0)
    2768:	00160613          	addi	a2,a2,1
    276c:	00100593          	li	a1,1
    2770:	00170713          	addi	a4,a4,1
    2774:	00b42223          	sw	a1,4(s0)
    2778:	0cc12623          	sw	a2,204(sp)
    277c:	0ce12423          	sw	a4,200(sp)
    2780:	00700593          	li	a1,7
    2784:	00840413          	addi	s0,s0,8
    2788:	3ee5c463          	blt	a1,a4,2b70 <_vfprintf_r+0x660>
    278c:	02028a63          	beqz	t0,27c0 <_vfprintf_r+0x2b0>
    2790:	0c812703          	lw	a4,200(sp)
    2794:	00200593          	li	a1,2
    2798:	00260613          	addi	a2,a2,2
    279c:	00170713          	addi	a4,a4,1
    27a0:	0a810793          	addi	a5,sp,168
    27a4:	00b42223          	sw	a1,4(s0)
    27a8:	00f42023          	sw	a5,0(s0)
    27ac:	0cc12623          	sw	a2,204(sp)
    27b0:	0ce12423          	sw	a4,200(sp)
    27b4:	00700593          	li	a1,7
    27b8:	00840413          	addi	s0,s0,8
    27bc:	50e5cce3          	blt	a1,a4,34d4 <_vfprintf_r+0xfc4>
    27c0:	08000713          	li	a4,128
    27c4:	1eef80e3          	beq	t6,a4,31a4 <_vfprintf_r+0xc94>
    27c8:	416a8ab3          	sub	s5,s5,s6
    27cc:	2d504ee3          	bgtz	s5,32a8 <_vfprintf_r+0xd98>
    27d0:	100cf713          	andi	a4,s9,256
    27d4:	02071ee3          	bnez	a4,3010 <_vfprintf_r+0xb00>
    27d8:	0c812783          	lw	a5,200(sp)
    27dc:	01660633          	add	a2,a2,s6
    27e0:	01a42023          	sw	s10,0(s0)
    27e4:	00178793          	addi	a5,a5,1
    27e8:	01642223          	sw	s6,4(s0)
    27ec:	0cc12623          	sw	a2,204(sp)
    27f0:	0cf12423          	sw	a5,200(sp)
    27f4:	00700713          	li	a4,7
    27f8:	4af74c63          	blt	a4,a5,2cb0 <_vfprintf_r+0x7a0>
    27fc:	00840413          	addi	s0,s0,8
    2800:	004cfe13          	andi	t3,s9,4
    2804:	000e0663          	beqz	t3,2810 <_vfprintf_r+0x300>
    2808:	41bb8ab3          	sub	s5,s7,s11
    280c:	4f504ce3          	bgtz	s5,3504 <_vfprintf_r+0xff4>
    2810:	000b8313          	mv	t1,s7
    2814:	01bbd463          	bge	s7,s11,281c <_vfprintf_r+0x30c>
    2818:	000d8313          	mv	t1,s11
    281c:	00c12783          	lw	a5,12(sp)
    2820:	006787b3          	add	a5,a5,t1
    2824:	00f12623          	sw	a5,12(sp)
    2828:	360610e3          	bnez	a2,3388 <_vfprintf_r+0xe78>
    282c:	01012783          	lw	a5,16(sp)
    2830:	0c012423          	sw	zero,200(sp)
    2834:	00078863          	beqz	a5,2844 <_vfprintf_r+0x334>
    2838:	01012583          	lw	a1,16(sp)
    283c:	00812503          	lw	a0,8(sp)
    2840:	0a4040ef          	jal	68e4 <_free_r>
    2844:	00098413          	mv	s0,s3
    2848:	00090d13          	mv	s10,s2
    284c:	000d4703          	lbu	a4,0(s10)
    2850:	de0714e3          	bnez	a4,2638 <_vfprintf_r+0x128>
    2854:	0cc12783          	lw	a5,204(sp)
    2858:	00078463          	beqz	a5,2860 <_vfprintf_r+0x350>
    285c:	3950106f          	j	43f0 <_vfprintf_r+0x1ee0>
    2860:	00c4d783          	lhu	a5,12(s1)
    2864:	1c012903          	lw	s2,448(sp)
    2868:	1bc12983          	lw	s3,444(sp)
    286c:	0407f793          	andi	a5,a5,64
    2870:	1b812a03          	lw	s4,440(sp)
    2874:	1b412a83          	lw	s5,436(sp)
    2878:	1ac12b83          	lw	s7,428(sp)
    287c:	1a812c03          	lw	s8,424(sp)
    2880:	1a412c83          	lw	s9,420(sp)
    2884:	1a012d03          	lw	s10,416(sp)
    2888:	19c12d83          	lw	s11,412(sp)
    288c:	00078463          	beqz	a5,2894 <_vfprintf_r+0x384>
    2890:	0d00206f          	j	4960 <_vfprintf_r+0x2450>
    2894:	1cc12083          	lw	ra,460(sp)
    2898:	1c812403          	lw	s0,456(sp)
    289c:	00c12503          	lw	a0,12(sp)
    28a0:	1c412483          	lw	s1,452(sp)
    28a4:	1b012b03          	lw	s6,432(sp)
    28a8:	1d010113          	addi	sp,sp,464
    28ac:	00008067          	ret
    28b0:	00812503          	lw	a0,8(sp)
    28b4:	00048593          	mv	a1,s1
    28b8:	3ec030ef          	jal	5ca4 <__swsetup_r>
    28bc:	00050463          	beqz	a0,28c4 <_vfprintf_r+0x3b4>
    28c0:	0a00206f          	j	4960 <_vfprintf_r+0x2450>
    28c4:	00c49703          	lh	a4,12(s1)
    28c8:	00a00693          	li	a3,10
    28cc:	01a77713          	andi	a4,a4,26
    28d0:	ced71ce3          	bne	a4,a3,25c8 <_vfprintf_r+0xb8>
    28d4:	00e49703          	lh	a4,14(s1)
    28d8:	ce0748e3          	bltz	a4,25c8 <_vfprintf_r+0xb8>
    28dc:	01412683          	lw	a3,20(sp)
    28e0:	00812503          	lw	a0,8(sp)
    28e4:	000b0613          	mv	a2,s6
    28e8:	00048593          	mv	a1,s1
    28ec:	4a4020ef          	jal	4d90 <__sbprintf>
    28f0:	00a12623          	sw	a0,12(sp)
    28f4:	fa1ff06f          	j	2894 <_vfprintf_r+0x384>
    28f8:	00812c03          	lw	s8,8(sp)
    28fc:	000c0513          	mv	a0,s8
    2900:	660030ef          	jal	5f60 <_localeconv_r>
    2904:	00452783          	lw	a5,4(a0)
    2908:	00078513          	mv	a0,a5
    290c:	04f12223          	sw	a5,68(sp)
    2910:	481030ef          	jal	6590 <strlen>
    2914:	00050793          	mv	a5,a0
    2918:	000c0513          	mv	a0,s8
    291c:	04f12423          	sw	a5,72(sp)
    2920:	00078c13          	mv	s8,a5
    2924:	63c030ef          	jal	5f60 <_localeconv_r>
    2928:	00852703          	lw	a4,8(a0)
    292c:	02e12e23          	sw	a4,60(sp)
    2930:	720c14e3          	bnez	s8,3858 <_vfprintf_r+0x1348>
    2934:	00094883          	lbu	a7,0(s2)
    2938:	d7dff06f          	j	26b4 <_vfprintf_r+0x1a4>
    293c:	00094883          	lbu	a7,0(s2)
    2940:	020cec93          	ori	s9,s9,32
    2944:	d71ff06f          	j	26b4 <_vfprintf_r+0x1a4>
    2948:	010cec93          	ori	s9,s9,16
    294c:	020cf793          	andi	a5,s9,32
    2950:	38078063          	beqz	a5,2cd0 <_vfprintf_r+0x7c0>
    2954:	01412783          	lw	a5,20(sp)
    2958:	00778c13          	addi	s8,a5,7
    295c:	ff8c7c13          	andi	s8,s8,-8
    2960:	004c2783          	lw	a5,4(s8)
    2964:	000c2b03          	lw	s6,0(s8)
    2968:	008c0713          	addi	a4,s8,8
    296c:	00e12a23          	sw	a4,20(sp)
    2970:	00078d93          	mv	s11,a5
    2974:	3807c863          	bltz	a5,2d04 <_vfprintf_r+0x7f4>
    2978:	000c8e93          	mv	t4,s9
    297c:	4e0ac463          	bltz	s5,2e64 <_vfprintf_r+0x954>
    2980:	01bb67b3          	or	a5,s6,s11
    2984:	f7fcfe93          	andi	t4,s9,-129
    2988:	4c079e63          	bnez	a5,2e64 <_vfprintf_r+0x954>
    298c:	4e0a9263          	bnez	s5,2e70 <_vfprintf_r+0x960>
    2990:	00000b13          	li	s6,0
    2994:	000e8c93          	mv	s9,t4
    2998:	19010d13          	addi	s10,sp,400
    299c:	0a714703          	lbu	a4,167(sp)
    29a0:	000a8d93          	mv	s11,s5
    29a4:	016ad463          	bge	s5,s6,29ac <_vfprintf_r+0x49c>
    29a8:	000b0d93          	mv	s11,s6
    29ac:	00012823          	sw	zero,16(sp)
    29b0:	02012423          	sw	zero,40(sp)
    29b4:	02012223          	sw	zero,36(sp)
    29b8:	00012e23          	sw	zero,28(sp)
    29bc:	d6070ce3          	beqz	a4,2734 <_vfprintf_r+0x224>
    29c0:	001d8d93          	addi	s11,s11,1
    29c4:	d71ff06f          	j	2734 <_vfprintf_r+0x224>
    29c8:	010cec93          	ori	s9,s9,16
    29cc:	020cf793          	andi	a5,s9,32
    29d0:	3c078263          	beqz	a5,2d94 <_vfprintf_r+0x884>
    29d4:	01412783          	lw	a5,20(sp)
    29d8:	00778c13          	addi	s8,a5,7
    29dc:	ff8c7c13          	andi	s8,s8,-8
    29e0:	000c2b03          	lw	s6,0(s8)
    29e4:	004c2d83          	lw	s11,4(s8)
    29e8:	008c0793          	addi	a5,s8,8
    29ec:	00f12a23          	sw	a5,20(sp)
    29f0:	bffcfe93          	andi	t4,s9,-1025
    29f4:	00000793          	li	a5,0
    29f8:	00000713          	li	a4,0
    29fc:	0ae103a3          	sb	a4,167(sp)
    2a00:	320ac463          	bltz	s5,2d28 <_vfprintf_r+0x818>
    2a04:	01bb6733          	or	a4,s6,s11
    2a08:	f7fefc93          	andi	s9,t4,-129
    2a0c:	1a0712e3          	bnez	a4,33b0 <_vfprintf_r+0xea0>
    2a10:	720a9c63          	bnez	s5,3148 <_vfprintf_r+0xc38>
    2a14:	5e0790e3          	bnez	a5,37f4 <_vfprintf_r+0x12e4>
    2a18:	001efb13          	andi	s6,t4,1
    2a1c:	19010d13          	addi	s10,sp,400
    2a20:	f60b0ee3          	beqz	s6,299c <_vfprintf_r+0x48c>
    2a24:	03000793          	li	a5,48
    2a28:	18f107a3          	sb	a5,399(sp)
    2a2c:	18f10d13          	addi	s10,sp,399
    2a30:	f6dff06f          	j	299c <_vfprintf_r+0x48c>
    2a34:	41a90ab3          	sub	s5,s2,s10
    2a38:	c3a910e3          	bne	s2,s10,2658 <_vfprintf_r+0x148>
    2a3c:	00094703          	lbu	a4,0(s2)
    2a40:	c55ff06f          	j	2694 <_vfprintf_r+0x184>
    2a44:	00812503          	lw	a0,8(sp)
    2a48:	0c410613          	addi	a2,sp,196
    2a4c:	00048593          	mv	a1,s1
    2a50:	40c020ef          	jal	4e5c <__sprint_r>
    2a54:	e00516e3          	bnez	a0,2860 <_vfprintf_r+0x350>
    2a58:	00098413          	mv	s0,s3
    2a5c:	c29ff06f          	j	2684 <_vfprintf_r+0x174>
    2a60:	008cf713          	andi	a4,s9,8
    2a64:	640712e3          	bnez	a4,38a8 <_vfprintf_r+0x1398>
    2a68:	01412783          	lw	a5,20(sp)
    2a6c:	09010513          	addi	a0,sp,144
    2a70:	01112823          	sw	a7,16(sp)
    2a74:	00778c13          	addi	s8,a5,7
    2a78:	ff8c7c13          	andi	s8,s8,-8
    2a7c:	000c2583          	lw	a1,0(s8)
    2a80:	004c2603          	lw	a2,4(s8)
    2a84:	008c0793          	addi	a5,s8,8
    2a88:	00f12a23          	sw	a5,20(sp)
    2a8c:	2b10f0ef          	jal	1253c <__extenddftf2>
    2a90:	09012583          	lw	a1,144(sp)
    2a94:	09412603          	lw	a2,148(sp)
    2a98:	09812683          	lw	a3,152(sp)
    2a9c:	09c12703          	lw	a4,156(sp)
    2aa0:	01012883          	lw	a7,16(sp)
    2aa4:	0d010513          	addi	a0,sp,208
    2aa8:	01112823          	sw	a7,16(sp)
    2aac:	0ce12e23          	sw	a4,220(sp)
    2ab0:	0cb12823          	sw	a1,208(sp)
    2ab4:	0cc12a23          	sw	a2,212(sp)
    2ab8:	0cd12c23          	sw	a3,216(sp)
    2abc:	3d8040ef          	jal	6e94 <_ldcheck>
    2ac0:	0aa12623          	sw	a0,172(sp)
    2ac4:	00200713          	li	a4,2
    2ac8:	01012883          	lw	a7,16(sp)
    2acc:	00e51463          	bne	a0,a4,2ad4 <_vfprintf_r+0x5c4>
    2ad0:	3f00106f          	j	3ec0 <_vfprintf_r+0x19b0>
    2ad4:	00100713          	li	a4,1
    2ad8:	00e51463          	bne	a0,a4,2ae0 <_vfprintf_r+0x5d0>
    2adc:	5380106f          	j	4014 <_vfprintf_r+0x1b04>
    2ae0:	06100713          	li	a4,97
    2ae4:	00e89463          	bne	a7,a4,2aec <_vfprintf_r+0x5dc>
    2ae8:	78d0006f          	j	3a74 <_vfprintf_r+0x1564>
    2aec:	04100713          	li	a4,65
    2af0:	05800793          	li	a5,88
    2af4:	78e882e3          	beq	a7,a4,3a78 <_vfprintf_r+0x1568>
    2af8:	fff00713          	li	a4,-1
    2afc:	00ea9463          	bne	s5,a4,2b04 <_vfprintf_r+0x5f4>
    2b00:	0d80206f          	j	4bd8 <_vfprintf_r+0x26c8>
    2b04:	fdf8f713          	andi	a4,a7,-33
    2b08:	04700693          	li	a3,71
    2b0c:	00012823          	sw	zero,16(sp)
    2b10:	00d71663          	bne	a4,a3,2b1c <_vfprintf_r+0x60c>
    2b14:	000a9463          	bnez	s5,2b1c <_vfprintf_r+0x60c>
    2b18:	00100a93          	li	s5,1
    2b1c:	0dc12c03          	lw	s8,220(sp)
    2b20:	100ce793          	ori	a5,s9,256
    2b24:	04f12623          	sw	a5,76(sp)
    2b28:	02012c23          	sw	zero,56(sp)
    2b2c:	0d012f83          	lw	t6,208(sp)
    2b30:	0d412f03          	lw	t5,212(sp)
    2b34:	0d812e83          	lw	t4,216(sp)
    2b38:	000c5a63          	bgez	s8,2b4c <_vfprintf_r+0x63c>
    2b3c:	80000737          	lui	a4,0x80000
    2b40:	02d00793          	li	a5,45
    2b44:	01874c33          	xor	s8,a4,s8
    2b48:	02f12c23          	sw	a5,56(sp)
    2b4c:	fbf88713          	addi	a4,a7,-65
    2b50:	02500693          	li	a3,37
    2b54:	76e6e6e3          	bltu	a3,a4,3ac0 <_vfprintf_r+0x15b0>
    2b58:	000136b7          	lui	a3,0x13
    2b5c:	00271713          	slli	a4,a4,0x2
    2b60:	11068693          	addi	a3,a3,272 # 13110 <keypad_map+0x450>
    2b64:	00d70733          	add	a4,a4,a3
    2b68:	00072703          	lw	a4,0(a4) # 80000000 <_memory_end+0x7ffe0000>
    2b6c:	00070067          	jr	a4
    2b70:	00812503          	lw	a0,8(sp)
    2b74:	0c410613          	addi	a2,sp,196
    2b78:	00048593          	mv	a1,s1
    2b7c:	05112823          	sw	a7,80(sp)
    2b80:	05f12623          	sw	t6,76(sp)
    2b84:	02512c23          	sw	t0,56(sp)
    2b88:	2d4020ef          	jal	4e5c <__sprint_r>
    2b8c:	000518e3          	bnez	a0,339c <_vfprintf_r+0xe8c>
    2b90:	0cc12603          	lw	a2,204(sp)
    2b94:	05012883          	lw	a7,80(sp)
    2b98:	04c12f83          	lw	t6,76(sp)
    2b9c:	03812283          	lw	t0,56(sp)
    2ba0:	00098413          	mv	s0,s3
    2ba4:	be9ff06f          	j	278c <_vfprintf_r+0x27c>
    2ba8:	0c812a83          	lw	s5,200(sp)
    2bac:	02012783          	lw	a5,32(sp)
    2bb0:	00100713          	li	a4,1
    2bb4:	01a42023          	sw	s10,0(s0)
    2bb8:	00160c13          	addi	s8,a2,1
    2bbc:	001a8a93          	addi	s5,s5,1
    2bc0:	00840b13          	addi	s6,s0,8
    2bc4:	32f75ee3          	bge	a4,a5,3700 <_vfprintf_r+0x11f0>
    2bc8:	00100713          	li	a4,1
    2bcc:	00e42223          	sw	a4,4(s0)
    2bd0:	0d812623          	sw	s8,204(sp)
    2bd4:	0d512423          	sw	s5,200(sp)
    2bd8:	00700713          	li	a4,7
    2bdc:	01575463          	bge	a4,s5,2be4 <_vfprintf_r+0x6d4>
    2be0:	0a80106f          	j	3c88 <_vfprintf_r+0x1778>
    2be4:	02c12783          	lw	a5,44(sp)
    2be8:	03012703          	lw	a4,48(sp)
    2bec:	001a8a93          	addi	s5,s5,1
    2bf0:	00fc0c33          	add	s8,s8,a5
    2bf4:	00eb2023          	sw	a4,0(s6)
    2bf8:	00fb2223          	sw	a5,4(s6)
    2bfc:	0d812623          	sw	s8,204(sp)
    2c00:	0d512423          	sw	s5,200(sp)
    2c04:	00700713          	li	a4,7
    2c08:	008b0b13          	addi	s6,s6,8
    2c0c:	01575463          	bge	a4,s5,2c14 <_vfprintf_r+0x704>
    2c10:	09c0106f          	j	3cac <_vfprintf_r+0x179c>
    2c14:	0d012703          	lw	a4,208(sp)
    2c18:	02012783          	lw	a5,32(sp)
    2c1c:	08010593          	addi	a1,sp,128
    2c20:	08e12823          	sw	a4,144(sp)
    2c24:	0d412703          	lw	a4,212(sp)
    2c28:	09010513          	addi	a0,sp,144
    2c2c:	08012023          	sw	zero,128(sp)
    2c30:	08e12a23          	sw	a4,148(sp)
    2c34:	0d812703          	lw	a4,216(sp)
    2c38:	08012223          	sw	zero,132(sp)
    2c3c:	08012423          	sw	zero,136(sp)
    2c40:	08e12c23          	sw	a4,152(sp)
    2c44:	0dc12703          	lw	a4,220(sp)
    2c48:	08012623          	sw	zero,140(sp)
    2c4c:	fff78413          	addi	s0,a5,-1
    2c50:	08e12e23          	sw	a4,156(sp)
    2c54:	4780c0ef          	jal	f0cc <__eqtf2>
    2c58:	2e0504e3          	beqz	a0,3740 <_vfprintf_r+0x1230>
    2c5c:	001d0793          	addi	a5,s10,1
    2c60:	001a8a93          	addi	s5,s5,1
    2c64:	008c0c33          	add	s8,s8,s0
    2c68:	00fb2023          	sw	a5,0(s6)
    2c6c:	008b2223          	sw	s0,4(s6)
    2c70:	0d812623          	sw	s8,204(sp)
    2c74:	0d512423          	sw	s5,200(sp)
    2c78:	00700793          	li	a5,7
    2c7c:	008b0b13          	addi	s6,s6,8
    2c80:	2957cee3          	blt	a5,s5,371c <_vfprintf_r+0x120c>
    2c84:	04012683          	lw	a3,64(sp)
    2c88:	0b410713          	addi	a4,sp,180
    2c8c:	001a8793          	addi	a5,s5,1
    2c90:	01868633          	add	a2,a3,s8
    2c94:	00eb2023          	sw	a4,0(s6)
    2c98:	00db2223          	sw	a3,4(s6)
    2c9c:	0cc12623          	sw	a2,204(sp)
    2ca0:	0cf12423          	sw	a5,200(sp)
    2ca4:	00700713          	li	a4,7
    2ca8:	008b0413          	addi	s0,s6,8
    2cac:	b4f75ae3          	bge	a4,a5,2800 <_vfprintf_r+0x2f0>
    2cb0:	00812503          	lw	a0,8(sp)
    2cb4:	0c410613          	addi	a2,sp,196
    2cb8:	00048593          	mv	a1,s1
    2cbc:	1a0020ef          	jal	4e5c <__sprint_r>
    2cc0:	6c051e63          	bnez	a0,339c <_vfprintf_r+0xe8c>
    2cc4:	0cc12603          	lw	a2,204(sp)
    2cc8:	00098413          	mv	s0,s3
    2ccc:	b35ff06f          	j	2800 <_vfprintf_r+0x2f0>
    2cd0:	01412703          	lw	a4,20(sp)
    2cd4:	010cf793          	andi	a5,s9,16
    2cd8:	00072b03          	lw	s6,0(a4)
    2cdc:	00470713          	addi	a4,a4,4
    2ce0:	00e12a23          	sw	a4,20(sp)
    2ce4:	360794e3          	bnez	a5,384c <_vfprintf_r+0x133c>
    2ce8:	040cf793          	andi	a5,s9,64
    2cec:	34078ce3          	beqz	a5,3844 <_vfprintf_r+0x1334>
    2cf0:	010b1b13          	slli	s6,s6,0x10
    2cf4:	410b5b13          	srai	s6,s6,0x10
    2cf8:	41fb5d93          	srai	s11,s6,0x1f
    2cfc:	000d8793          	mv	a5,s11
    2d00:	c607dce3          	bgez	a5,2978 <_vfprintf_r+0x468>
    2d04:	02d00713          	li	a4,45
    2d08:	016037b3          	snez	a5,s6
    2d0c:	41b00db3          	neg	s11,s11
    2d10:	0ae103a3          	sb	a4,167(sp)
    2d14:	40fd8db3          	sub	s11,s11,a5
    2d18:	41600b33          	neg	s6,s6
    2d1c:	000c8e93          	mv	t4,s9
    2d20:	00100793          	li	a5,1
    2d24:	ce0ad0e3          	bgez	s5,2a04 <_vfprintf_r+0x4f4>
    2d28:	00100713          	li	a4,1
    2d2c:	12e78c63          	beq	a5,a4,2e64 <_vfprintf_r+0x954>
    2d30:	00200713          	li	a4,2
    2d34:	42e78663          	beq	a5,a4,3160 <_vfprintf_r+0xc50>
    2d38:	19010d13          	addi	s10,sp,400
    2d3c:	01dd9793          	slli	a5,s11,0x1d
    2d40:	007b7713          	andi	a4,s6,7
    2d44:	003b5b13          	srli	s6,s6,0x3
    2d48:	03070713          	addi	a4,a4,48
    2d4c:	0167eb33          	or	s6,a5,s6
    2d50:	003ddd93          	srli	s11,s11,0x3
    2d54:	feed0fa3          	sb	a4,-1(s10)
    2d58:	01bb67b3          	or	a5,s6,s11
    2d5c:	000d0613          	mv	a2,s10
    2d60:	fffd0d13          	addi	s10,s10,-1
    2d64:	fc079ce3          	bnez	a5,2d3c <_vfprintf_r+0x82c>
    2d68:	001ef693          	andi	a3,t4,1
    2d6c:	42068463          	beqz	a3,3194 <_vfprintf_r+0xc84>
    2d70:	03000693          	li	a3,48
    2d74:	42d70063          	beq	a4,a3,3194 <_vfprintf_r+0xc84>
    2d78:	ffe60613          	addi	a2,a2,-2
    2d7c:	19010793          	addi	a5,sp,400
    2d80:	fedd0fa3          	sb	a3,-1(s10)
    2d84:	40c78b33          	sub	s6,a5,a2
    2d88:	000e8c93          	mv	s9,t4
    2d8c:	00060d13          	mv	s10,a2
    2d90:	c0dff06f          	j	299c <_vfprintf_r+0x48c>
    2d94:	01412703          	lw	a4,20(sp)
    2d98:	010cf793          	andi	a5,s9,16
    2d9c:	00072b03          	lw	s6,0(a4)
    2da0:	00470713          	addi	a4,a4,4
    2da4:	00e12a23          	sw	a4,20(sp)
    2da8:	28079ae3          	bnez	a5,383c <_vfprintf_r+0x132c>
    2dac:	040cf793          	andi	a5,s9,64
    2db0:	280782e3          	beqz	a5,3834 <_vfprintf_r+0x1324>
    2db4:	010b1b13          	slli	s6,s6,0x10
    2db8:	010b5b13          	srli	s6,s6,0x10
    2dbc:	00000d93          	li	s11,0
    2dc0:	c31ff06f          	j	29f0 <_vfprintf_r+0x4e0>
    2dc4:	01412703          	lw	a4,20(sp)
    2dc8:	0a0103a3          	sb	zero,167(sp)
    2dcc:	00100d93          	li	s11,1
    2dd0:	00072783          	lw	a5,0(a4)
    2dd4:	00470713          	addi	a4,a4,4
    2dd8:	00e12a23          	sw	a4,20(sp)
    2ddc:	12f10623          	sb	a5,300(sp)
    2de0:	00100b13          	li	s6,1
    2de4:	12c10d13          	addi	s10,sp,300
    2de8:	939ff06f          	j	2720 <_vfprintf_r+0x210>
    2dec:	01412783          	lw	a5,20(sp)
    2df0:	0a0103a3          	sb	zero,167(sp)
    2df4:	0007ad03          	lw	s10,0(a5)
    2df8:	00478c13          	addi	s8,a5,4
    2dfc:	380d0ae3          	beqz	s10,3990 <_vfprintf_r+0x1480>
    2e00:	000ad463          	bgez	s5,2e08 <_vfprintf_r+0x8f8>
    2e04:	1b00106f          	j	3fb4 <_vfprintf_r+0x1aa4>
    2e08:	000a8613          	mv	a2,s5
    2e0c:	00000593          	li	a1,0
    2e10:	000d0513          	mv	a0,s10
    2e14:	01112a23          	sw	a7,20(sp)
    2e18:	7d1020ef          	jal	5de8 <memchr>
    2e1c:	00a12823          	sw	a0,16(sp)
    2e20:	01412883          	lw	a7,20(sp)
    2e24:	00051463          	bnez	a0,2e2c <_vfprintf_r+0x91c>
    2e28:	3550106f          	j	497c <_vfprintf_r+0x246c>
    2e2c:	01012783          	lw	a5,16(sp)
    2e30:	0a714703          	lbu	a4,167(sp)
    2e34:	01812a23          	sw	s8,20(sp)
    2e38:	41a78b33          	sub	s6,a5,s10
    2e3c:	fffb4693          	not	a3,s6
    2e40:	41f6d693          	srai	a3,a3,0x1f
    2e44:	00012823          	sw	zero,16(sp)
    2e48:	02012423          	sw	zero,40(sp)
    2e4c:	02012223          	sw	zero,36(sp)
    2e50:	00012e23          	sw	zero,28(sp)
    2e54:	00db7db3          	and	s11,s6,a3
    2e58:	00000a93          	li	s5,0
    2e5c:	b60712e3          	bnez	a4,29c0 <_vfprintf_r+0x4b0>
    2e60:	8d5ff06f          	j	2734 <_vfprintf_r+0x224>
    2e64:	660d9ee3          	bnez	s11,3ce0 <_vfprintf_r+0x17d0>
    2e68:	00900793          	li	a5,9
    2e6c:	6767eae3          	bltu	a5,s6,3ce0 <_vfprintf_r+0x17d0>
    2e70:	030b0b13          	addi	s6,s6,48
    2e74:	196107a3          	sb	s6,399(sp)
    2e78:	000e8c93          	mv	s9,t4
    2e7c:	00100b13          	li	s6,1
    2e80:	18f10d13          	addi	s10,sp,399
    2e84:	b19ff06f          	j	299c <_vfprintf_r+0x48c>
    2e88:	01412783          	lw	a5,20(sp)
    2e8c:	0007ab83          	lw	s7,0(a5)
    2e90:	00478793          	addi	a5,a5,4
    2e94:	160bdee3          	bgez	s7,3810 <_vfprintf_r+0x1300>
    2e98:	41700bb3          	neg	s7,s7
    2e9c:	00f12a23          	sw	a5,20(sp)
    2ea0:	00094883          	lbu	a7,0(s2)
    2ea4:	004cec93          	ori	s9,s9,4
    2ea8:	80dff06f          	j	26b4 <_vfprintf_r+0x1a4>
    2eac:	02b00793          	li	a5,43
    2eb0:	00094883          	lbu	a7,0(s2)
    2eb4:	0af103a3          	sb	a5,167(sp)
    2eb8:	ffcff06f          	j	26b4 <_vfprintf_r+0x1a4>
    2ebc:	00094883          	lbu	a7,0(s2)
    2ec0:	080cec93          	ori	s9,s9,128
    2ec4:	ff0ff06f          	j	26b4 <_vfprintf_r+0x1a4>
    2ec8:	00094883          	lbu	a7,0(s2)
    2ecc:	02a00793          	li	a5,42
    2ed0:	00190693          	addi	a3,s2,1
    2ed4:	00f89463          	bne	a7,a5,2edc <_vfprintf_r+0x9cc>
    2ed8:	6510106f          	j	4d28 <_vfprintf_r+0x2818>
    2edc:	fd088793          	addi	a5,a7,-48
    2ee0:	00900713          	li	a4,9
    2ee4:	00000a93          	li	s5,0
    2ee8:	00900613          	li	a2,9
    2eec:	02f76463          	bltu	a4,a5,2f14 <_vfprintf_r+0xa04>
    2ef0:	0006c883          	lbu	a7,0(a3)
    2ef4:	002a9713          	slli	a4,s5,0x2
    2ef8:	01570ab3          	add	s5,a4,s5
    2efc:	001a9a93          	slli	s5,s5,0x1
    2f00:	00fa8ab3          	add	s5,s5,a5
    2f04:	fd088793          	addi	a5,a7,-48
    2f08:	00168693          	addi	a3,a3,1
    2f0c:	fef672e3          	bgeu	a2,a5,2ef0 <_vfprintf_r+0x9e0>
    2f10:	1c0ac4e3          	bltz	s5,38d8 <_vfprintf_r+0x13c8>
    2f14:	00068913          	mv	s2,a3
    2f18:	fa0ff06f          	j	26b8 <_vfprintf_r+0x1a8>
    2f1c:	00094883          	lbu	a7,0(s2)
    2f20:	001cec93          	ori	s9,s9,1
    2f24:	f90ff06f          	j	26b4 <_vfprintf_r+0x1a4>
    2f28:	0a714783          	lbu	a5,167(sp)
    2f2c:	00094883          	lbu	a7,0(s2)
    2f30:	f8079263          	bnez	a5,26b4 <_vfprintf_r+0x1a4>
    2f34:	02000793          	li	a5,32
    2f38:	0af103a3          	sb	a5,167(sp)
    2f3c:	f78ff06f          	j	26b4 <_vfprintf_r+0x1a4>
    2f40:	010cee93          	ori	t4,s9,16
    2f44:	020ef793          	andi	a5,t4,32
    2f48:	06078ce3          	beqz	a5,37c0 <_vfprintf_r+0x12b0>
    2f4c:	01412783          	lw	a5,20(sp)
    2f50:	00778c13          	addi	s8,a5,7
    2f54:	ff8c7c13          	andi	s8,s8,-8
    2f58:	008c0793          	addi	a5,s8,8
    2f5c:	00f12a23          	sw	a5,20(sp)
    2f60:	000c2b03          	lw	s6,0(s8)
    2f64:	004c2d83          	lw	s11,4(s8)
    2f68:	00100793          	li	a5,1
    2f6c:	a8dff06f          	j	29f8 <_vfprintf_r+0x4e8>
    2f70:	00094883          	lbu	a7,0(s2)
    2f74:	008cec93          	ori	s9,s9,8
    2f78:	f3cff06f          	j	26b4 <_vfprintf_r+0x1a4>
    2f7c:	01412703          	lw	a4,20(sp)
    2f80:	000087b7          	lui	a5,0x8
    2f84:	83078793          	addi	a5,a5,-2000 # 7830 <__gdtoa+0x898>
    2f88:	0af11423          	sh	a5,168(sp)
    2f8c:	00470793          	addi	a5,a4,4
    2f90:	00f12a23          	sw	a5,20(sp)
    2f94:	4f018793          	addi	a5,gp,1264 # 12e00 <keypad_map+0x140>
    2f98:	02f12a23          	sw	a5,52(sp)
    2f9c:	00072b03          	lw	s6,0(a4)
    2fa0:	00000d93          	li	s11,0
    2fa4:	002cee93          	ori	t4,s9,2
    2fa8:	00200793          	li	a5,2
    2fac:	07800893          	li	a7,120
    2fb0:	a49ff06f          	j	29f8 <_vfprintf_r+0x4e8>
    2fb4:	020cf793          	andi	a5,s9,32
    2fb8:	0c0782e3          	beqz	a5,387c <_vfprintf_r+0x136c>
    2fbc:	01412783          	lw	a5,20(sp)
    2fc0:	00c12683          	lw	a3,12(sp)
    2fc4:	0007a783          	lw	a5,0(a5)
    2fc8:	41f6d713          	srai	a4,a3,0x1f
    2fcc:	00d7a023          	sw	a3,0(a5)
    2fd0:	00e7a223          	sw	a4,4(a5)
    2fd4:	01412783          	lw	a5,20(sp)
    2fd8:	00090d13          	mv	s10,s2
    2fdc:	00478793          	addi	a5,a5,4
    2fe0:	00f12a23          	sw	a5,20(sp)
    2fe4:	869ff06f          	j	284c <_vfprintf_r+0x33c>
    2fe8:	00094883          	lbu	a7,0(s2)
    2fec:	06c00793          	li	a5,108
    2ff0:	16f888e3          	beq	a7,a5,3960 <_vfprintf_r+0x1450>
    2ff4:	010cec93          	ori	s9,s9,16
    2ff8:	ebcff06f          	j	26b4 <_vfprintf_r+0x1a4>
    2ffc:	00094883          	lbu	a7,0(s2)
    3000:	06800793          	li	a5,104
    3004:	14f886e3          	beq	a7,a5,3950 <_vfprintf_r+0x1440>
    3008:	040cec93          	ori	s9,s9,64
    300c:	ea8ff06f          	j	26b4 <_vfprintf_r+0x1a4>
    3010:	06500713          	li	a4,101
    3014:	b9175ae3          	bge	a4,a7,2ba8 <_vfprintf_r+0x698>
    3018:	0d012703          	lw	a4,208(sp)
    301c:	08010593          	addi	a1,sp,128
    3020:	09010513          	addi	a0,sp,144
    3024:	08e12823          	sw	a4,144(sp)
    3028:	0d412703          	lw	a4,212(sp)
    302c:	02c12c23          	sw	a2,56(sp)
    3030:	08012023          	sw	zero,128(sp)
    3034:	08e12a23          	sw	a4,148(sp)
    3038:	0d812703          	lw	a4,216(sp)
    303c:	08012223          	sw	zero,132(sp)
    3040:	08012423          	sw	zero,136(sp)
    3044:	08e12c23          	sw	a4,152(sp)
    3048:	0dc12703          	lw	a4,220(sp)
    304c:	08012623          	sw	zero,140(sp)
    3050:	08e12e23          	sw	a4,156(sp)
    3054:	0780c0ef          	jal	f0cc <__eqtf2>
    3058:	03812603          	lw	a2,56(sp)
    305c:	54051c63          	bnez	a0,35b4 <_vfprintf_r+0x10a4>
    3060:	0c812783          	lw	a5,200(sp)
    3064:	52018713          	addi	a4,gp,1312 # 12e30 <keypad_map+0x170>
    3068:	00e42023          	sw	a4,0(s0)
    306c:	00160613          	addi	a2,a2,1
    3070:	00100713          	li	a4,1
    3074:	00178793          	addi	a5,a5,1
    3078:	00e42223          	sw	a4,4(s0)
    307c:	0cc12623          	sw	a2,204(sp)
    3080:	0cf12423          	sw	a5,200(sp)
    3084:	00700713          	li	a4,7
    3088:	00840413          	addi	s0,s0,8
    308c:	5ef744e3          	blt	a4,a5,3e74 <_vfprintf_r+0x1964>
    3090:	0ac12783          	lw	a5,172(sp)
    3094:	02012703          	lw	a4,32(sp)
    3098:	76e7d463          	bge	a5,a4,3800 <_vfprintf_r+0x12f0>
    309c:	03012783          	lw	a5,48(sp)
    30a0:	02c12703          	lw	a4,44(sp)
    30a4:	00840413          	addi	s0,s0,8
    30a8:	fef42c23          	sw	a5,-8(s0)
    30ac:	0c812783          	lw	a5,200(sp)
    30b0:	00e60633          	add	a2,a2,a4
    30b4:	fee42e23          	sw	a4,-4(s0)
    30b8:	00178793          	addi	a5,a5,1
    30bc:	0cc12623          	sw	a2,204(sp)
    30c0:	0cf12423          	sw	a5,200(sp)
    30c4:	00700713          	li	a4,7
    30c8:	0af744e3          	blt	a4,a5,3970 <_vfprintf_r+0x1460>
    30cc:	02012783          	lw	a5,32(sp)
    30d0:	fff78a93          	addi	s5,a5,-1
    30d4:	f3505663          	blez	s5,2800 <_vfprintf_r+0x2f0>
    30d8:	00013837          	lui	a6,0x13
    30dc:	1a880813          	addi	a6,a6,424 # 131a8 <zeroes.0>
    30e0:	01000713          	li	a4,16
    30e4:	0c812783          	lw	a5,200(sp)
    30e8:	01000b13          	li	s6,16
    30ec:	00700c13          	li	s8,7
    30f0:	00080d13          	mv	s10,a6
    30f4:	01574863          	blt	a4,s5,3104 <_vfprintf_r+0xbf4>
    30f8:	5a10006f          	j	3e98 <_vfprintf_r+0x1988>
    30fc:	ff0a8a93          	addi	s5,s5,-16
    3100:	595b5ae3          	bge	s6,s5,3e94 <_vfprintf_r+0x1984>
    3104:	01060613          	addi	a2,a2,16
    3108:	00178793          	addi	a5,a5,1
    310c:	01a42023          	sw	s10,0(s0)
    3110:	01642223          	sw	s6,4(s0)
    3114:	0cc12623          	sw	a2,204(sp)
    3118:	0cf12423          	sw	a5,200(sp)
    311c:	00840413          	addi	s0,s0,8
    3120:	fcfc5ee3          	bge	s8,a5,30fc <_vfprintf_r+0xbec>
    3124:	00812503          	lw	a0,8(sp)
    3128:	0c410613          	addi	a2,sp,196
    312c:	00048593          	mv	a1,s1
    3130:	52d010ef          	jal	4e5c <__sprint_r>
    3134:	26051463          	bnez	a0,339c <_vfprintf_r+0xe8c>
    3138:	0cc12603          	lw	a2,204(sp)
    313c:	0c812783          	lw	a5,200(sp)
    3140:	00098413          	mv	s0,s3
    3144:	fb9ff06f          	j	30fc <_vfprintf_r+0xbec>
    3148:	00100713          	li	a4,1
    314c:	00e79463          	bne	a5,a4,3154 <_vfprintf_r+0xc44>
    3150:	1890106f          	j	4ad8 <_vfprintf_r+0x25c8>
    3154:	00200713          	li	a4,2
    3158:	000c8e93          	mv	t4,s9
    315c:	bce79ee3          	bne	a5,a4,2d38 <_vfprintf_r+0x828>
    3160:	03412683          	lw	a3,52(sp)
    3164:	19010d13          	addi	s10,sp,400
    3168:	00fb7793          	andi	a5,s6,15
    316c:	00f687b3          	add	a5,a3,a5
    3170:	0007c703          	lbu	a4,0(a5)
    3174:	004b5b13          	srli	s6,s6,0x4
    3178:	01cd9793          	slli	a5,s11,0x1c
    317c:	0167eb33          	or	s6,a5,s6
    3180:	004ddd93          	srli	s11,s11,0x4
    3184:	feed0fa3          	sb	a4,-1(s10)
    3188:	01bb67b3          	or	a5,s6,s11
    318c:	fffd0d13          	addi	s10,s10,-1
    3190:	fc079ce3          	bnez	a5,3168 <_vfprintf_r+0xc58>
    3194:	19010793          	addi	a5,sp,400
    3198:	41a78b33          	sub	s6,a5,s10
    319c:	000e8c93          	mv	s9,t4
    31a0:	ffcff06f          	j	299c <_vfprintf_r+0x48c>
    31a4:	41bb8c33          	sub	s8,s7,s11
    31a8:	e3805063          	blez	s8,27c8 <_vfprintf_r+0x2b8>
    31ac:	00013837          	lui	a6,0x13
    31b0:	01000513          	li	a0,16
    31b4:	0c812583          	lw	a1,200(sp)
    31b8:	1a880813          	addi	a6,a6,424 # 131a8 <zeroes.0>
    31bc:	0b855063          	bge	a0,s8,325c <_vfprintf_r+0xd4c>
    31c0:	03212c23          	sw	s2,56(sp)
    31c4:	00040793          	mv	a5,s0
    31c8:	01000e93          	li	t4,16
    31cc:	000c0413          	mv	s0,s8
    31d0:	00700f93          	li	t6,7
    31d4:	000b0c13          	mv	s8,s6
    31d8:	00080913          	mv	s2,a6
    31dc:	000a8b13          	mv	s6,s5
    31e0:	00088a93          	mv	s5,a7
    31e4:	00c0006f          	j	31f0 <_vfprintf_r+0xce0>
    31e8:	ff040413          	addi	s0,s0,-16
    31ec:	048eda63          	bge	t4,s0,3240 <_vfprintf_r+0xd30>
    31f0:	01060613          	addi	a2,a2,16
    31f4:	00158593          	addi	a1,a1,1 # 2001 <i2c_start_simple+0xd1>
    31f8:	0127a023          	sw	s2,0(a5)
    31fc:	01d7a223          	sw	t4,4(a5)
    3200:	0cc12623          	sw	a2,204(sp)
    3204:	0cb12423          	sw	a1,200(sp)
    3208:	00878793          	addi	a5,a5,8
    320c:	fcbfdee3          	bge	t6,a1,31e8 <_vfprintf_r+0xcd8>
    3210:	00812503          	lw	a0,8(sp)
    3214:	0c410613          	addi	a2,sp,196
    3218:	00048593          	mv	a1,s1
    321c:	441010ef          	jal	4e5c <__sprint_r>
    3220:	16051e63          	bnez	a0,339c <_vfprintf_r+0xe8c>
    3224:	01000e93          	li	t4,16
    3228:	ff040413          	addi	s0,s0,-16
    322c:	0cc12603          	lw	a2,204(sp)
    3230:	0c812583          	lw	a1,200(sp)
    3234:	00098793          	mv	a5,s3
    3238:	00700f93          	li	t6,7
    323c:	fa8ecae3          	blt	t4,s0,31f0 <_vfprintf_r+0xce0>
    3240:	00090813          	mv	a6,s2
    3244:	03812903          	lw	s2,56(sp)
    3248:	000a8893          	mv	a7,s5
    324c:	000b0a93          	mv	s5,s6
    3250:	000c0b13          	mv	s6,s8
    3254:	00040c13          	mv	s8,s0
    3258:	00078413          	mv	s0,a5
    325c:	01860633          	add	a2,a2,s8
    3260:	00158593          	addi	a1,a1,1
    3264:	01042023          	sw	a6,0(s0)
    3268:	01842223          	sw	s8,4(s0)
    326c:	0cc12623          	sw	a2,204(sp)
    3270:	0cb12423          	sw	a1,200(sp)
    3274:	00700713          	li	a4,7
    3278:	00840413          	addi	s0,s0,8
    327c:	d4b75663          	bge	a4,a1,27c8 <_vfprintf_r+0x2b8>
    3280:	00812503          	lw	a0,8(sp)
    3284:	0c410613          	addi	a2,sp,196
    3288:	00048593          	mv	a1,s1
    328c:	03112c23          	sw	a7,56(sp)
    3290:	3cd010ef          	jal	4e5c <__sprint_r>
    3294:	10051463          	bnez	a0,339c <_vfprintf_r+0xe8c>
    3298:	0cc12603          	lw	a2,204(sp)
    329c:	03812883          	lw	a7,56(sp)
    32a0:	00098413          	mv	s0,s3
    32a4:	d24ff06f          	j	27c8 <_vfprintf_r+0x2b8>
    32a8:	00013837          	lui	a6,0x13
    32ac:	01000713          	li	a4,16
    32b0:	0c812583          	lw	a1,200(sp)
    32b4:	1a880813          	addi	a6,a6,424 # 131a8 <zeroes.0>
    32b8:	09575263          	bge	a4,s5,333c <_vfprintf_r+0xe2c>
    32bc:	00040793          	mv	a5,s0
    32c0:	01000713          	li	a4,16
    32c4:	000a8413          	mv	s0,s5
    32c8:	00700c13          	li	s8,7
    32cc:	03112c23          	sw	a7,56(sp)
    32d0:	000a0a93          	mv	s5,s4
    32d4:	00c0006f          	j	32e0 <_vfprintf_r+0xdd0>
    32d8:	ff040413          	addi	s0,s0,-16
    32dc:	04875863          	bge	a4,s0,332c <_vfprintf_r+0xe1c>
    32e0:	01060613          	addi	a2,a2,16
    32e4:	00158593          	addi	a1,a1,1
    32e8:	0147a023          	sw	s4,0(a5)
    32ec:	00e7a223          	sw	a4,4(a5)
    32f0:	0cc12623          	sw	a2,204(sp)
    32f4:	0cb12423          	sw	a1,200(sp)
    32f8:	00878793          	addi	a5,a5,8
    32fc:	fcbc5ee3          	bge	s8,a1,32d8 <_vfprintf_r+0xdc8>
    3300:	00812503          	lw	a0,8(sp)
    3304:	0c410613          	addi	a2,sp,196
    3308:	00048593          	mv	a1,s1
    330c:	351010ef          	jal	4e5c <__sprint_r>
    3310:	08051663          	bnez	a0,339c <_vfprintf_r+0xe8c>
    3314:	01000713          	li	a4,16
    3318:	ff040413          	addi	s0,s0,-16
    331c:	0cc12603          	lw	a2,204(sp)
    3320:	0c812583          	lw	a1,200(sp)
    3324:	00098793          	mv	a5,s3
    3328:	fa874ce3          	blt	a4,s0,32e0 <_vfprintf_r+0xdd0>
    332c:	03812883          	lw	a7,56(sp)
    3330:	000a8813          	mv	a6,s5
    3334:	00040a93          	mv	s5,s0
    3338:	00078413          	mv	s0,a5
    333c:	01560633          	add	a2,a2,s5
    3340:	00158593          	addi	a1,a1,1
    3344:	01042023          	sw	a6,0(s0)
    3348:	01542223          	sw	s5,4(s0)
    334c:	0cc12623          	sw	a2,204(sp)
    3350:	0cb12423          	sw	a1,200(sp)
    3354:	00700713          	li	a4,7
    3358:	00840413          	addi	s0,s0,8
    335c:	c6b75a63          	bge	a4,a1,27d0 <_vfprintf_r+0x2c0>
    3360:	00812503          	lw	a0,8(sp)
    3364:	0c410613          	addi	a2,sp,196
    3368:	00048593          	mv	a1,s1
    336c:	03112c23          	sw	a7,56(sp)
    3370:	2ed010ef          	jal	4e5c <__sprint_r>
    3374:	02051463          	bnez	a0,339c <_vfprintf_r+0xe8c>
    3378:	0cc12603          	lw	a2,204(sp)
    337c:	03812883          	lw	a7,56(sp)
    3380:	00098413          	mv	s0,s3
    3384:	c4cff06f          	j	27d0 <_vfprintf_r+0x2c0>
    3388:	00812503          	lw	a0,8(sp)
    338c:	0c410613          	addi	a2,sp,196
    3390:	00048593          	mv	a1,s1
    3394:	2c9010ef          	jal	4e5c <__sprint_r>
    3398:	c8050a63          	beqz	a0,282c <_vfprintf_r+0x31c>
    339c:	01012583          	lw	a1,16(sp)
    33a0:	cc058063          	beqz	a1,2860 <_vfprintf_r+0x350>
    33a4:	00812503          	lw	a0,8(sp)
    33a8:	53c030ef          	jal	68e4 <_free_r>
    33ac:	cb4ff06f          	j	2860 <_vfprintf_r+0x350>
    33b0:	000c8e93          	mv	t4,s9
    33b4:	975ff06f          	j	2d28 <_vfprintf_r+0x818>
    33b8:	00013837          	lui	a6,0x13
    33bc:	01000513          	li	a0,16
    33c0:	0c812583          	lw	a1,200(sp)
    33c4:	1b880c13          	addi	s8,a6,440 # 131b8 <blanks.1>
    33c8:	0ae55863          	bge	a0,a4,3478 <_vfprintf_r+0xf68>
    33cc:	05212823          	sw	s2,80(sp)
    33d0:	00040793          	mv	a5,s0
    33d4:	000c0913          	mv	s2,s8
    33d8:	01000e93          	li	t4,16
    33dc:	000b0c13          	mv	s8,s6
    33e0:	00700393          	li	t2,7
    33e4:	000a8b13          	mv	s6,s5
    33e8:	02512c23          	sw	t0,56(sp)
    33ec:	05f12623          	sw	t6,76(sp)
    33f0:	00070413          	mv	s0,a4
    33f4:	00088a93          	mv	s5,a7
    33f8:	00c0006f          	j	3404 <_vfprintf_r+0xef4>
    33fc:	ff040413          	addi	s0,s0,-16
    3400:	048eda63          	bge	t4,s0,3454 <_vfprintf_r+0xf44>
    3404:	01060613          	addi	a2,a2,16
    3408:	00158593          	addi	a1,a1,1
    340c:	0127a023          	sw	s2,0(a5)
    3410:	01d7a223          	sw	t4,4(a5)
    3414:	0cc12623          	sw	a2,204(sp)
    3418:	0cb12423          	sw	a1,200(sp)
    341c:	00878793          	addi	a5,a5,8
    3420:	fcb3dee3          	bge	t2,a1,33fc <_vfprintf_r+0xeec>
    3424:	00812503          	lw	a0,8(sp)
    3428:	0c410613          	addi	a2,sp,196
    342c:	00048593          	mv	a1,s1
    3430:	22d010ef          	jal	4e5c <__sprint_r>
    3434:	f60514e3          	bnez	a0,339c <_vfprintf_r+0xe8c>
    3438:	01000e93          	li	t4,16
    343c:	ff040413          	addi	s0,s0,-16
    3440:	0cc12603          	lw	a2,204(sp)
    3444:	0c812583          	lw	a1,200(sp)
    3448:	00098793          	mv	a5,s3
    344c:	00700393          	li	t2,7
    3450:	fa8ecae3          	blt	t4,s0,3404 <_vfprintf_r+0xef4>
    3454:	000a8893          	mv	a7,s5
    3458:	03812283          	lw	t0,56(sp)
    345c:	000b0a93          	mv	s5,s6
    3460:	04c12f83          	lw	t6,76(sp)
    3464:	000c0b13          	mv	s6,s8
    3468:	00090c13          	mv	s8,s2
    346c:	05012903          	lw	s2,80(sp)
    3470:	00040713          	mv	a4,s0
    3474:	00078413          	mv	s0,a5
    3478:	00e60633          	add	a2,a2,a4
    347c:	00158593          	addi	a1,a1,1
    3480:	00e42223          	sw	a4,4(s0)
    3484:	01842023          	sw	s8,0(s0)
    3488:	0cc12623          	sw	a2,204(sp)
    348c:	0cb12423          	sw	a1,200(sp)
    3490:	00700713          	li	a4,7
    3494:	00840413          	addi	s0,s0,8
    3498:	aab75e63          	bge	a4,a1,2754 <_vfprintf_r+0x244>
    349c:	00812503          	lw	a0,8(sp)
    34a0:	0c410613          	addi	a2,sp,196
    34a4:	00048593          	mv	a1,s1
    34a8:	05112823          	sw	a7,80(sp)
    34ac:	05f12623          	sw	t6,76(sp)
    34b0:	02512c23          	sw	t0,56(sp)
    34b4:	1a9010ef          	jal	4e5c <__sprint_r>
    34b8:	ee0512e3          	bnez	a0,339c <_vfprintf_r+0xe8c>
    34bc:	0cc12603          	lw	a2,204(sp)
    34c0:	05012883          	lw	a7,80(sp)
    34c4:	04c12f83          	lw	t6,76(sp)
    34c8:	03812283          	lw	t0,56(sp)
    34cc:	00098413          	mv	s0,s3
    34d0:	a84ff06f          	j	2754 <_vfprintf_r+0x244>
    34d4:	00812503          	lw	a0,8(sp)
    34d8:	0c410613          	addi	a2,sp,196
    34dc:	00048593          	mv	a1,s1
    34e0:	05112623          	sw	a7,76(sp)
    34e4:	03f12c23          	sw	t6,56(sp)
    34e8:	175010ef          	jal	4e5c <__sprint_r>
    34ec:	ea0518e3          	bnez	a0,339c <_vfprintf_r+0xe8c>
    34f0:	0cc12603          	lw	a2,204(sp)
    34f4:	04c12883          	lw	a7,76(sp)
    34f8:	03812f83          	lw	t6,56(sp)
    34fc:	00098413          	mv	s0,s3
    3500:	ac0ff06f          	j	27c0 <_vfprintf_r+0x2b0>
    3504:	00013837          	lui	a6,0x13
    3508:	01000713          	li	a4,16
    350c:	0c812783          	lw	a5,200(sp)
    3510:	1b880c13          	addi	s8,a6,440 # 131b8 <blanks.1>
    3514:	07575263          	bge	a4,s5,3578 <_vfprintf_r+0x1068>
    3518:	00812d03          	lw	s10,8(sp)
    351c:	01000b13          	li	s6,16
    3520:	00700c93          	li	s9,7
    3524:	00c0006f          	j	3530 <_vfprintf_r+0x1020>
    3528:	ff0a8a93          	addi	s5,s5,-16
    352c:	055b5663          	bge	s6,s5,3578 <_vfprintf_r+0x1068>
    3530:	01060613          	addi	a2,a2,16
    3534:	00178793          	addi	a5,a5,1
    3538:	01842023          	sw	s8,0(s0)
    353c:	01642223          	sw	s6,4(s0)
    3540:	0cc12623          	sw	a2,204(sp)
    3544:	0cf12423          	sw	a5,200(sp)
    3548:	00840413          	addi	s0,s0,8
    354c:	fcfcdee3          	bge	s9,a5,3528 <_vfprintf_r+0x1018>
    3550:	0c410613          	addi	a2,sp,196
    3554:	00048593          	mv	a1,s1
    3558:	000d0513          	mv	a0,s10
    355c:	101010ef          	jal	4e5c <__sprint_r>
    3560:	e2051ee3          	bnez	a0,339c <_vfprintf_r+0xe8c>
    3564:	ff0a8a93          	addi	s5,s5,-16
    3568:	0cc12603          	lw	a2,204(sp)
    356c:	0c812783          	lw	a5,200(sp)
    3570:	00098413          	mv	s0,s3
    3574:	fb5b4ee3          	blt	s6,s5,3530 <_vfprintf_r+0x1020>
    3578:	01560633          	add	a2,a2,s5
    357c:	00178793          	addi	a5,a5,1
    3580:	01842023          	sw	s8,0(s0)
    3584:	01542223          	sw	s5,4(s0)
    3588:	0cc12623          	sw	a2,204(sp)
    358c:	0cf12423          	sw	a5,200(sp)
    3590:	00700713          	li	a4,7
    3594:	a6f75e63          	bge	a4,a5,2810 <_vfprintf_r+0x300>
    3598:	00812503          	lw	a0,8(sp)
    359c:	0c410613          	addi	a2,sp,196
    35a0:	00048593          	mv	a1,s1
    35a4:	0b9010ef          	jal	4e5c <__sprint_r>
    35a8:	de051ae3          	bnez	a0,339c <_vfprintf_r+0xe8c>
    35ac:	0cc12603          	lw	a2,204(sp)
    35b0:	a60ff06f          	j	2810 <_vfprintf_r+0x300>
    35b4:	0ac12503          	lw	a0,172(sp)
    35b8:	02a05ae3          	blez	a0,3dec <_vfprintf_r+0x18dc>
    35bc:	01c12783          	lw	a5,28(sp)
    35c0:	02012703          	lw	a4,32(sp)
    35c4:	00078a93          	mv	s5,a5
    35c8:	30f74263          	blt	a4,a5,38cc <_vfprintf_r+0x13bc>
    35cc:	03505663          	blez	s5,35f8 <_vfprintf_r+0x10e8>
    35d0:	0c812703          	lw	a4,200(sp)
    35d4:	01560633          	add	a2,a2,s5
    35d8:	01a42023          	sw	s10,0(s0)
    35dc:	00170713          	addi	a4,a4,1
    35e0:	01542223          	sw	s5,4(s0)
    35e4:	0cc12623          	sw	a2,204(sp)
    35e8:	0ce12423          	sw	a4,200(sp)
    35ec:	00700593          	li	a1,7
    35f0:	00840413          	addi	s0,s0,8
    35f4:	58e5c0e3          	blt	a1,a4,4374 <_vfprintf_r+0x1e64>
    35f8:	fffac713          	not	a4,s5
    35fc:	01c12783          	lw	a5,28(sp)
    3600:	41f75713          	srai	a4,a4,0x1f
    3604:	00eafab3          	and	s5,s5,a4
    3608:	41578ab3          	sub	s5,a5,s5
    360c:	3b504063          	bgtz	s5,39ac <_vfprintf_r+0x149c>
    3610:	01c12783          	lw	a5,28(sp)
    3614:	400cf713          	andi	a4,s9,1024
    3618:	00fd0c33          	add	s8,s10,a5
    361c:	30071ae3          	bnez	a4,4130 <_vfprintf_r+0x1c20>
    3620:	0ac12a83          	lw	s5,172(sp)
    3624:	02012783          	lw	a5,32(sp)
    3628:	3efacc63          	blt	s5,a5,3a20 <_vfprintf_r+0x1510>
    362c:	001cf713          	andi	a4,s9,1
    3630:	3e071863          	bnez	a4,3a20 <_vfprintf_r+0x1510>
    3634:	02012703          	lw	a4,32(sp)
    3638:	00ed07b3          	add	a5,s10,a4
    363c:	41570ab3          	sub	s5,a4,s5
    3640:	41878b33          	sub	s6,a5,s8
    3644:	016ad463          	bge	s5,s6,364c <_vfprintf_r+0x113c>
    3648:	000a8b13          	mv	s6,s5
    364c:	03605863          	blez	s6,367c <_vfprintf_r+0x116c>
    3650:	0c812783          	lw	a5,200(sp)
    3654:	01660633          	add	a2,a2,s6
    3658:	01842023          	sw	s8,0(s0)
    365c:	00178793          	addi	a5,a5,1
    3660:	01642223          	sw	s6,4(s0)
    3664:	0cc12623          	sw	a2,204(sp)
    3668:	0cf12423          	sw	a5,200(sp)
    366c:	00700713          	li	a4,7
    3670:	00840413          	addi	s0,s0,8
    3674:	00f75463          	bge	a4,a5,367c <_vfprintf_r+0x116c>
    3678:	3300106f          	j	49a8 <_vfprintf_r+0x2498>
    367c:	fffb4793          	not	a5,s6
    3680:	41f7d793          	srai	a5,a5,0x1f
    3684:	00fb7b33          	and	s6,s6,a5
    3688:	416a8ab3          	sub	s5,s5,s6
    368c:	97505a63          	blez	s5,2800 <_vfprintf_r+0x2f0>
    3690:	00013837          	lui	a6,0x13
    3694:	1a880813          	addi	a6,a6,424 # 131a8 <zeroes.0>
    3698:	01000713          	li	a4,16
    369c:	0c812783          	lw	a5,200(sp)
    36a0:	01000b13          	li	s6,16
    36a4:	00700c13          	li	s8,7
    36a8:	00080d13          	mv	s10,a6
    36ac:	01574863          	blt	a4,s5,36bc <_vfprintf_r+0x11ac>
    36b0:	7e80006f          	j	3e98 <_vfprintf_r+0x1988>
    36b4:	ff0a8a93          	addi	s5,s5,-16
    36b8:	7d5b5e63          	bge	s6,s5,3e94 <_vfprintf_r+0x1984>
    36bc:	01060613          	addi	a2,a2,16
    36c0:	00178793          	addi	a5,a5,1
    36c4:	01a42023          	sw	s10,0(s0)
    36c8:	01642223          	sw	s6,4(s0)
    36cc:	0cc12623          	sw	a2,204(sp)
    36d0:	0cf12423          	sw	a5,200(sp)
    36d4:	00840413          	addi	s0,s0,8
    36d8:	fcfc5ee3          	bge	s8,a5,36b4 <_vfprintf_r+0x11a4>
    36dc:	00812503          	lw	a0,8(sp)
    36e0:	0c410613          	addi	a2,sp,196
    36e4:	00048593          	mv	a1,s1
    36e8:	774010ef          	jal	4e5c <__sprint_r>
    36ec:	ca0518e3          	bnez	a0,339c <_vfprintf_r+0xe8c>
    36f0:	0cc12603          	lw	a2,204(sp)
    36f4:	0c812783          	lw	a5,200(sp)
    36f8:	00098413          	mv	s0,s3
    36fc:	fb9ff06f          	j	36b4 <_vfprintf_r+0x11a4>
    3700:	001cf593          	andi	a1,s9,1
    3704:	cc059263          	bnez	a1,2bc8 <_vfprintf_r+0x6b8>
    3708:	00e42223          	sw	a4,4(s0)
    370c:	0d812623          	sw	s8,204(sp)
    3710:	0d512423          	sw	s5,200(sp)
    3714:	00700793          	li	a5,7
    3718:	d757d663          	bge	a5,s5,2c84 <_vfprintf_r+0x774>
    371c:	00812503          	lw	a0,8(sp)
    3720:	0c410613          	addi	a2,sp,196
    3724:	00048593          	mv	a1,s1
    3728:	734010ef          	jal	4e5c <__sprint_r>
    372c:	c60518e3          	bnez	a0,339c <_vfprintf_r+0xe8c>
    3730:	0cc12c03          	lw	s8,204(sp)
    3734:	0c812a83          	lw	s5,200(sp)
    3738:	00098b13          	mv	s6,s3
    373c:	d48ff06f          	j	2c84 <_vfprintf_r+0x774>
    3740:	02012703          	lw	a4,32(sp)
    3744:	00100793          	li	a5,1
    3748:	d2e7de63          	bge	a5,a4,2c84 <_vfprintf_r+0x774>
    374c:	00013837          	lui	a6,0x13
    3750:	01100793          	li	a5,17
    3754:	1a880813          	addi	a6,a6,424 # 131a8 <zeroes.0>
    3758:	0ae7d6e3          	bge	a5,a4,4004 <_vfprintf_r+0x1af4>
    375c:	01212e23          	sw	s2,28(sp)
    3760:	01000793          	li	a5,16
    3764:	00700d13          	li	s10,7
    3768:	00080913          	mv	s2,a6
    376c:	00c0006f          	j	3778 <_vfprintf_r+0x1268>
    3770:	ff040413          	addi	s0,s0,-16
    3774:	0887d4e3          	bge	a5,s0,3ffc <_vfprintf_r+0x1aec>
    3778:	010c0c13          	addi	s8,s8,16
    377c:	001a8a93          	addi	s5,s5,1
    3780:	012b2023          	sw	s2,0(s6)
    3784:	00fb2223          	sw	a5,4(s6)
    3788:	0d812623          	sw	s8,204(sp)
    378c:	0d512423          	sw	s5,200(sp)
    3790:	008b0b13          	addi	s6,s6,8
    3794:	fd5d5ee3          	bge	s10,s5,3770 <_vfprintf_r+0x1260>
    3798:	00812503          	lw	a0,8(sp)
    379c:	0c410613          	addi	a2,sp,196
    37a0:	00048593          	mv	a1,s1
    37a4:	6b8010ef          	jal	4e5c <__sprint_r>
    37a8:	be051ae3          	bnez	a0,339c <_vfprintf_r+0xe8c>
    37ac:	0cc12c03          	lw	s8,204(sp)
    37b0:	0c812a83          	lw	s5,200(sp)
    37b4:	00098b13          	mv	s6,s3
    37b8:	01000793          	li	a5,16
    37bc:	fb5ff06f          	j	3770 <_vfprintf_r+0x1260>
    37c0:	01412703          	lw	a4,20(sp)
    37c4:	010ef793          	andi	a5,t4,16
    37c8:	00072b03          	lw	s6,0(a4)
    37cc:	00470713          	addi	a4,a4,4
    37d0:	00e12a23          	sw	a4,20(sp)
    37d4:	04079a63          	bnez	a5,3828 <_vfprintf_r+0x1318>
    37d8:	040ef793          	andi	a5,t4,64
    37dc:	04078063          	beqz	a5,381c <_vfprintf_r+0x130c>
    37e0:	010b1b13          	slli	s6,s6,0x10
    37e4:	010b5b13          	srli	s6,s6,0x10
    37e8:	00000d93          	li	s11,0
    37ec:	00100793          	li	a5,1
    37f0:	a08ff06f          	j	29f8 <_vfprintf_r+0x4e8>
    37f4:	00000b13          	li	s6,0
    37f8:	19010d13          	addi	s10,sp,400
    37fc:	9a0ff06f          	j	299c <_vfprintf_r+0x48c>
    3800:	001cf793          	andi	a5,s9,1
    3804:	00079463          	bnez	a5,380c <_vfprintf_r+0x12fc>
    3808:	ff9fe06f          	j	2800 <_vfprintf_r+0x2f0>
    380c:	891ff06f          	j	309c <_vfprintf_r+0xb8c>
    3810:	00094883          	lbu	a7,0(s2)
    3814:	00f12a23          	sw	a5,20(sp)
    3818:	e9dfe06f          	j	26b4 <_vfprintf_r+0x1a4>
    381c:	200ef793          	andi	a5,t4,512
    3820:	00078463          	beqz	a5,3828 <_vfprintf_r+0x1318>
    3824:	0ffb7b13          	zext.b	s6,s6
    3828:	00000d93          	li	s11,0
    382c:	00100793          	li	a5,1
    3830:	9c8ff06f          	j	29f8 <_vfprintf_r+0x4e8>
    3834:	200cf793          	andi	a5,s9,512
    3838:	380798e3          	bnez	a5,43c8 <_vfprintf_r+0x1eb8>
    383c:	00000d93          	li	s11,0
    3840:	9b0ff06f          	j	29f0 <_vfprintf_r+0x4e0>
    3844:	200cf793          	andi	a5,s9,512
    3848:	360796e3          	bnez	a5,43b4 <_vfprintf_r+0x1ea4>
    384c:	41fb5d93          	srai	s11,s6,0x1f
    3850:	000d8793          	mv	a5,s11
    3854:	920ff06f          	j	2974 <_vfprintf_r+0x464>
    3858:	03c12783          	lw	a5,60(sp)
    385c:	00094883          	lbu	a7,0(s2)
    3860:	00079463          	bnez	a5,3868 <_vfprintf_r+0x1358>
    3864:	e51fe06f          	j	26b4 <_vfprintf_r+0x1a4>
    3868:	0007c783          	lbu	a5,0(a5)
    386c:	00079463          	bnez	a5,3874 <_vfprintf_r+0x1364>
    3870:	e45fe06f          	j	26b4 <_vfprintf_r+0x1a4>
    3874:	400cec93          	ori	s9,s9,1024
    3878:	e3dfe06f          	j	26b4 <_vfprintf_r+0x1a4>
    387c:	010cf793          	andi	a5,s9,16
    3880:	6c079063          	bnez	a5,3f40 <_vfprintf_r+0x1a30>
    3884:	040cf793          	andi	a5,s9,64
    3888:	30079ce3          	bnez	a5,43a0 <_vfprintf_r+0x1e90>
    388c:	200cfe13          	andi	t3,s9,512
    3890:	6a0e0863          	beqz	t3,3f40 <_vfprintf_r+0x1a30>
    3894:	01412783          	lw	a5,20(sp)
    3898:	00c12703          	lw	a4,12(sp)
    389c:	0007a783          	lw	a5,0(a5)
    38a0:	00e78023          	sb	a4,0(a5)
    38a4:	f30ff06f          	j	2fd4 <_vfprintf_r+0xac4>
    38a8:	01412783          	lw	a5,20(sp)
    38ac:	0007a703          	lw	a4,0(a5)
    38b0:	00478793          	addi	a5,a5,4
    38b4:	00f12a23          	sw	a5,20(sp)
    38b8:	00072583          	lw	a1,0(a4)
    38bc:	00472603          	lw	a2,4(a4)
    38c0:	00872683          	lw	a3,8(a4)
    38c4:	00c72703          	lw	a4,12(a4)
    38c8:	9dcff06f          	j	2aa4 <_vfprintf_r+0x594>
    38cc:	00070a93          	mv	s5,a4
    38d0:	d15040e3          	bgtz	s5,35d0 <_vfprintf_r+0x10c0>
    38d4:	d25ff06f          	j	35f8 <_vfprintf_r+0x10e8>
    38d8:	fff00a93          	li	s5,-1
    38dc:	00068913          	mv	s2,a3
    38e0:	dd9fe06f          	j	26b8 <_vfprintf_r+0x1a8>
    38e4:	50418793          	addi	a5,gp,1284 # 12e14 <keypad_map+0x154>
    38e8:	02f12a23          	sw	a5,52(sp)
    38ec:	020cf793          	andi	a5,s9,32
    38f0:	36078463          	beqz	a5,3c58 <_vfprintf_r+0x1748>
    38f4:	01412783          	lw	a5,20(sp)
    38f8:	00778c13          	addi	s8,a5,7
    38fc:	ff8c7c13          	andi	s8,s8,-8
    3900:	000c2b03          	lw	s6,0(s8)
    3904:	004c2d83          	lw	s11,4(s8)
    3908:	008c0793          	addi	a5,s8,8
    390c:	00f12a23          	sw	a5,20(sp)
    3910:	001cf793          	andi	a5,s9,1
    3914:	00078e63          	beqz	a5,3930 <_vfprintf_r+0x1420>
    3918:	01bb67b3          	or	a5,s6,s11
    391c:	00078a63          	beqz	a5,3930 <_vfprintf_r+0x1420>
    3920:	03000793          	li	a5,48
    3924:	0af10423          	sb	a5,168(sp)
    3928:	0b1104a3          	sb	a7,169(sp)
    392c:	002cec93          	ori	s9,s9,2
    3930:	bffcfe93          	andi	t4,s9,-1025
    3934:	00200793          	li	a5,2
    3938:	8c0ff06f          	j	29f8 <_vfprintf_r+0x4e8>
    393c:	000c8e93          	mv	t4,s9
    3940:	e04ff06f          	j	2f44 <_vfprintf_r+0xa34>
    3944:	4f018793          	addi	a5,gp,1264 # 12e00 <keypad_map+0x140>
    3948:	02f12a23          	sw	a5,52(sp)
    394c:	fa1ff06f          	j	38ec <_vfprintf_r+0x13dc>
    3950:	00194883          	lbu	a7,1(s2)
    3954:	200cec93          	ori	s9,s9,512
    3958:	00190913          	addi	s2,s2,1
    395c:	d59fe06f          	j	26b4 <_vfprintf_r+0x1a4>
    3960:	00194883          	lbu	a7,1(s2)
    3964:	020cec93          	ori	s9,s9,32
    3968:	00190913          	addi	s2,s2,1
    396c:	d49fe06f          	j	26b4 <_vfprintf_r+0x1a4>
    3970:	00812503          	lw	a0,8(sp)
    3974:	0c410613          	addi	a2,sp,196
    3978:	00048593          	mv	a1,s1
    397c:	4e0010ef          	jal	4e5c <__sprint_r>
    3980:	a0051ee3          	bnez	a0,339c <_vfprintf_r+0xe8c>
    3984:	0cc12603          	lw	a2,204(sp)
    3988:	00098413          	mv	s0,s3
    398c:	f40ff06f          	j	30cc <_vfprintf_r+0xbbc>
    3990:	00600793          	li	a5,6
    3994:	000a8b13          	mv	s6,s5
    3998:	2157e0e3          	bltu	a5,s5,4398 <_vfprintf_r+0x1e88>
    399c:	000b0d93          	mv	s11,s6
    39a0:	01812a23          	sw	s8,20(sp)
    39a4:	51818d13          	addi	s10,gp,1304 # 12e28 <keypad_map+0x168>
    39a8:	d79fe06f          	j	2720 <_vfprintf_r+0x210>
    39ac:	00013837          	lui	a6,0x13
    39b0:	01000593          	li	a1,16
    39b4:	0c812703          	lw	a4,200(sp)
    39b8:	1a880813          	addi	a6,a6,424 # 131a8 <zeroes.0>
    39bc:	6755de63          	bge	a1,s5,4038 <_vfprintf_r+0x1b28>
    39c0:	00040793          	mv	a5,s0
    39c4:	01000c13          	li	s8,16
    39c8:	00700b13          	li	s6,7
    39cc:	00080413          	mv	s0,a6
    39d0:	00c0006f          	j	39dc <_vfprintf_r+0x14cc>
    39d4:	ff0a8a93          	addi	s5,s5,-16
    39d8:	655c5c63          	bge	s8,s5,4030 <_vfprintf_r+0x1b20>
    39dc:	01060613          	addi	a2,a2,16
    39e0:	00170713          	addi	a4,a4,1
    39e4:	0087a023          	sw	s0,0(a5)
    39e8:	0187a223          	sw	s8,4(a5)
    39ec:	0cc12623          	sw	a2,204(sp)
    39f0:	0ce12423          	sw	a4,200(sp)
    39f4:	00878793          	addi	a5,a5,8
    39f8:	fceb5ee3          	bge	s6,a4,39d4 <_vfprintf_r+0x14c4>
    39fc:	00812503          	lw	a0,8(sp)
    3a00:	0c410613          	addi	a2,sp,196
    3a04:	00048593          	mv	a1,s1
    3a08:	454010ef          	jal	4e5c <__sprint_r>
    3a0c:	980518e3          	bnez	a0,339c <_vfprintf_r+0xe8c>
    3a10:	0cc12603          	lw	a2,204(sp)
    3a14:	0c812703          	lw	a4,200(sp)
    3a18:	00098793          	mv	a5,s3
    3a1c:	fb9ff06f          	j	39d4 <_vfprintf_r+0x14c4>
    3a20:	03012703          	lw	a4,48(sp)
    3a24:	02c12783          	lw	a5,44(sp)
    3a28:	00700593          	li	a1,7
    3a2c:	00e42023          	sw	a4,0(s0)
    3a30:	0c812703          	lw	a4,200(sp)
    3a34:	00f60633          	add	a2,a2,a5
    3a38:	00f42223          	sw	a5,4(s0)
    3a3c:	00170713          	addi	a4,a4,1
    3a40:	0cc12623          	sw	a2,204(sp)
    3a44:	0ce12423          	sw	a4,200(sp)
    3a48:	00840413          	addi	s0,s0,8
    3a4c:	bee5d4e3          	bge	a1,a4,3634 <_vfprintf_r+0x1124>
    3a50:	00812503          	lw	a0,8(sp)
    3a54:	0c410613          	addi	a2,sp,196
    3a58:	00048593          	mv	a1,s1
    3a5c:	400010ef          	jal	4e5c <__sprint_r>
    3a60:	92051ee3          	bnez	a0,339c <_vfprintf_r+0xe8c>
    3a64:	0ac12a83          	lw	s5,172(sp)
    3a68:	0cc12603          	lw	a2,204(sp)
    3a6c:	00098413          	mv	s0,s3
    3a70:	bc5ff06f          	j	3634 <_vfprintf_r+0x1124>
    3a74:	07800793          	li	a5,120
    3a78:	03000713          	li	a4,48
    3a7c:	0ae10423          	sb	a4,168(sp)
    3a80:	0af104a3          	sb	a5,169(sp)
    3a84:	06300713          	li	a4,99
    3a88:	00012823          	sw	zero,16(sp)
    3a8c:	002cec93          	ori	s9,s9,2
    3a90:	12c10d13          	addi	s10,sp,300
    3a94:	89575463          	bge	a4,s5,2b1c <_vfprintf_r+0x60c>
    3a98:	00812503          	lw	a0,8(sp)
    3a9c:	001a8593          	addi	a1,s5,1
    3aa0:	01112823          	sw	a7,16(sp)
    3aa4:	558050ef          	jal	8ffc <_malloc_r>
    3aa8:	01012883          	lw	a7,16(sp)
    3aac:	00050d13          	mv	s10,a0
    3ab0:	00051463          	bnez	a0,3ab8 <_vfprintf_r+0x15a8>
    3ab4:	2b00106f          	j	4d64 <_vfprintf_r+0x2854>
    3ab8:	00a12823          	sw	a0,16(sp)
    3abc:	860ff06f          	j	2b1c <_vfprintf_r+0x60c>
    3ac0:	00812503          	lw	a0,8(sp)
    3ac4:	09010b13          	addi	s6,sp,144
    3ac8:	0ac10713          	addi	a4,sp,172
    3acc:	0bc10813          	addi	a6,sp,188
    3ad0:	0b010793          	addi	a5,sp,176
    3ad4:	000a8693          	mv	a3,s5
    3ad8:	00200613          	li	a2,2
    3adc:	000b0593          	mv	a1,s6
    3ae0:	03112423          	sw	a7,40(sp)
    3ae4:	09f12823          	sw	t6,144(sp)
    3ae8:	03f12223          	sw	t6,36(sp)
    3aec:	09e12a23          	sw	t5,148(sp)
    3af0:	03e12023          	sw	t5,32(sp)
    3af4:	09d12c23          	sw	t4,152(sp)
    3af8:	01d12e23          	sw	t4,28(sp)
    3afc:	09812e23          	sw	s8,156(sp)
    3b00:	0f0030ef          	jal	6bf0 <_ldtoa_r>
    3b04:	001cf713          	andi	a4,s9,1
    3b08:	01c12e83          	lw	t4,28(sp)
    3b0c:	02012f03          	lw	t5,32(sp)
    3b10:	02412f83          	lw	t6,36(sp)
    3b14:	02812883          	lw	a7,40(sp)
    3b18:	00050d13          	mv	s10,a0
    3b1c:	10071ae3          	bnez	a4,4430 <_vfprintf_r+0x1f20>
    3b20:	0ac12783          	lw	a5,172(sp)
    3b24:	00f12e23          	sw	a5,28(sp)
    3b28:	0bc12783          	lw	a5,188(sp)
    3b2c:	40a787b3          	sub	a5,a5,a0
    3b30:	02f12023          	sw	a5,32(sp)
    3b34:	01c12783          	lw	a5,28(sp)
    3b38:	ffd00713          	li	a4,-3
    3b3c:	00e7c463          	blt	a5,a4,3b44 <_vfprintf_r+0x1634>
    3b40:	58fad8e3          	bge	s5,a5,48d0 <_vfprintf_r+0x23c0>
    3b44:	01c12783          	lw	a5,28(sp)
    3b48:	ffe88893          	addi	a7,a7,-2
    3b4c:	fff78713          	addi	a4,a5,-1
    3b50:	0ae12623          	sw	a4,172(sp)
    3b54:	0ff8f693          	zext.b	a3,a7
    3b58:	00000613          	li	a2,0
    3b5c:	0ad10a23          	sb	a3,180(sp)
    3b60:	02b00693          	li	a3,43
    3b64:	00075a63          	bgez	a4,3b78 <_vfprintf_r+0x1668>
    3b68:	01c12783          	lw	a5,28(sp)
    3b6c:	00100713          	li	a4,1
    3b70:	02d00693          	li	a3,45
    3b74:	40f70733          	sub	a4,a4,a5
    3b78:	0ad10aa3          	sb	a3,181(sp)
    3b7c:	00900693          	li	a3,9
    3b80:	00e6c463          	blt	a3,a4,3b88 <_vfprintf_r+0x1678>
    3b84:	0240106f          	j	4ba8 <_vfprintf_r+0x2698>
    3b88:	0c310813          	addi	a6,sp,195
    3b8c:	00080593          	mv	a1,a6
    3b90:	00a00513          	li	a0,10
    3b94:	06300f13          	li	t5,99
    3b98:	02a767b3          	rem	a5,a4,a0
    3b9c:	00058613          	mv	a2,a1
    3ba0:	00070693          	mv	a3,a4
    3ba4:	fff58593          	addi	a1,a1,-1
    3ba8:	03078793          	addi	a5,a5,48
    3bac:	fef60fa3          	sb	a5,-1(a2)
    3bb0:	02a74733          	div	a4,a4,a0
    3bb4:	fedf42e3          	blt	t5,a3,3b98 <_vfprintf_r+0x1688>
    3bb8:	03070713          	addi	a4,a4,48
    3bbc:	ffe60693          	addi	a3,a2,-2
    3bc0:	fee58fa3          	sb	a4,-1(a1)
    3bc4:	0106e463          	bltu	a3,a6,3bcc <_vfprintf_r+0x16bc>
    3bc8:	1540106f          	j	4d1c <_vfprintf_r+0x280c>
    3bcc:	0b610713          	addi	a4,sp,182
    3bd0:	0006c783          	lbu	a5,0(a3)
    3bd4:	00168693          	addi	a3,a3,1
    3bd8:	00170713          	addi	a4,a4,1
    3bdc:	fef70fa3          	sb	a5,-1(a4)
    3be0:	ff0698e3          	bne	a3,a6,3bd0 <_vfprintf_r+0x16c0>
    3be4:	19010793          	addi	a5,sp,400
    3be8:	40c78733          	sub	a4,a5,a2
    3bec:	f3770793          	addi	a5,a4,-201
    3bf0:	04f12023          	sw	a5,64(sp)
    3bf4:	02012783          	lw	a5,32(sp)
    3bf8:	04012683          	lw	a3,64(sp)
    3bfc:	00100713          	li	a4,1
    3c00:	00d78b33          	add	s6,a5,a3
    3c04:	00f74463          	blt	a4,a5,3c0c <_vfprintf_r+0x16fc>
    3c08:	7dd0006f          	j	4be4 <_vfprintf_r+0x26d4>
    3c0c:	02c12783          	lw	a5,44(sp)
    3c10:	00fb0b33          	add	s6,s6,a5
    3c14:	fffb4693          	not	a3,s6
    3c18:	bffcfe13          	andi	t3,s9,-1025
    3c1c:	41f6d693          	srai	a3,a3,0x1f
    3c20:	100e6793          	ori	a5,t3,256
    3c24:	04f12623          	sw	a5,76(sp)
    3c28:	00db7db3          	and	s11,s6,a3
    3c2c:	02012423          	sw	zero,40(sp)
    3c30:	02012223          	sw	zero,36(sp)
    3c34:	00012e23          	sw	zero,28(sp)
    3c38:	03812783          	lw	a5,56(sp)
    3c3c:	46078ee3          	beqz	a5,48b8 <_vfprintf_r+0x23a8>
    3c40:	02d00713          	li	a4,45
    3c44:	04c12c83          	lw	s9,76(sp)
    3c48:	0ae103a3          	sb	a4,167(sp)
    3c4c:	00000a93          	li	s5,0
    3c50:	001d8d93          	addi	s11,s11,1
    3c54:	ae1fe06f          	j	2734 <_vfprintf_r+0x224>
    3c58:	01412703          	lw	a4,20(sp)
    3c5c:	010cf793          	andi	a5,s9,16
    3c60:	00072b03          	lw	s6,0(a4)
    3c64:	00470713          	addi	a4,a4,4
    3c68:	00e12a23          	sw	a4,20(sp)
    3c6c:	06079663          	bnez	a5,3cd8 <_vfprintf_r+0x17c8>
    3c70:	040cf793          	andi	a5,s9,64
    3c74:	04078e63          	beqz	a5,3cd0 <_vfprintf_r+0x17c0>
    3c78:	010b1b13          	slli	s6,s6,0x10
    3c7c:	010b5b13          	srli	s6,s6,0x10
    3c80:	00000d93          	li	s11,0
    3c84:	c8dff06f          	j	3910 <_vfprintf_r+0x1400>
    3c88:	00812503          	lw	a0,8(sp)
    3c8c:	0c410613          	addi	a2,sp,196
    3c90:	00048593          	mv	a1,s1
    3c94:	1c8010ef          	jal	4e5c <__sprint_r>
    3c98:	f0051263          	bnez	a0,339c <_vfprintf_r+0xe8c>
    3c9c:	0cc12c03          	lw	s8,204(sp)
    3ca0:	0c812a83          	lw	s5,200(sp)
    3ca4:	00098b13          	mv	s6,s3
    3ca8:	f3dfe06f          	j	2be4 <_vfprintf_r+0x6d4>
    3cac:	00812503          	lw	a0,8(sp)
    3cb0:	0c410613          	addi	a2,sp,196
    3cb4:	00048593          	mv	a1,s1
    3cb8:	1a4010ef          	jal	4e5c <__sprint_r>
    3cbc:	ee051063          	bnez	a0,339c <_vfprintf_r+0xe8c>
    3cc0:	0cc12c03          	lw	s8,204(sp)
    3cc4:	0c812a83          	lw	s5,200(sp)
    3cc8:	00098b13          	mv	s6,s3
    3ccc:	f49fe06f          	j	2c14 <_vfprintf_r+0x704>
    3cd0:	200cf793          	andi	a5,s9,512
    3cd4:	70079063          	bnez	a5,43d4 <_vfprintf_r+0x1ec4>
    3cd8:	00000d93          	li	s11,0
    3cdc:	c35ff06f          	j	3910 <_vfprintf_r+0x1400>
    3ce0:	ccccd837          	lui	a6,0xccccd
    3ce4:	ccccdcb7          	lui	s9,0xccccd
    3ce8:	03c12703          	lw	a4,60(sp)
    3cec:	400eff13          	andi	t5,t4,1024
    3cf0:	00000613          	li	a2,0
    3cf4:	19010593          	addi	a1,sp,400
    3cf8:	00500e13          	li	t3,5
    3cfc:	ccd80813          	addi	a6,a6,-819 # cccccccd <_memory_end+0xcccacccd>
    3d00:	cccc8c93          	addi	s9,s9,-820 # cccccccc <_memory_end+0xcccacccc>
    3d04:	0ff00c13          	li	s8,255
    3d08:	0540006f          	j	3d5c <_vfprintf_r+0x184c>
    3d0c:	016d37b3          	sltu	a5,s10,s6
    3d10:	00fd07b3          	add	a5,s10,a5
    3d14:	03c7f7b3          	remu	a5,a5,t3
    3d18:	40fb07b3          	sub	a5,s6,a5
    3d1c:	00fb35b3          	sltu	a1,s6,a5
    3d20:	40bd85b3          	sub	a1,s11,a1
    3d24:	03978333          	mul	t1,a5,s9
    3d28:	030585b3          	mul	a1,a1,a6
    3d2c:	0307b533          	mulhu	a0,a5,a6
    3d30:	006585b3          	add	a1,a1,t1
    3d34:	030787b3          	mul	a5,a5,a6
    3d38:	00a585b3          	add	a1,a1,a0
    3d3c:	01f59513          	slli	a0,a1,0x1f
    3d40:	0015d593          	srli	a1,a1,0x1
    3d44:	0017d793          	srli	a5,a5,0x1
    3d48:	00f567b3          	or	a5,a0,a5
    3d4c:	400d84e3          	beqz	s11,4954 <_vfprintf_r+0x2444>
    3d50:	00058d93          	mv	s11,a1
    3d54:	00078b13          	mv	s6,a5
    3d58:	00068593          	mv	a1,a3
    3d5c:	01bb0d33          	add	s10,s6,s11
    3d60:	016d37b3          	sltu	a5,s10,s6
    3d64:	00fd07b3          	add	a5,s10,a5
    3d68:	03c7f7b3          	remu	a5,a5,t3
    3d6c:	fff58693          	addi	a3,a1,-1
    3d70:	00160613          	addi	a2,a2,1
    3d74:	40fb07b3          	sub	a5,s6,a5
    3d78:	00fb3533          	sltu	a0,s6,a5
    3d7c:	40ad8533          	sub	a0,s11,a0
    3d80:	0307b333          	mulhu	t1,a5,a6
    3d84:	03050533          	mul	a0,a0,a6
    3d88:	030787b3          	mul	a5,a5,a6
    3d8c:	00650533          	add	a0,a0,t1
    3d90:	01f51513          	slli	a0,a0,0x1f
    3d94:	0017d793          	srli	a5,a5,0x1
    3d98:	00f567b3          	or	a5,a0,a5
    3d9c:	00279513          	slli	a0,a5,0x2
    3da0:	00f507b3          	add	a5,a0,a5
    3da4:	00179793          	slli	a5,a5,0x1
    3da8:	40fb07b3          	sub	a5,s6,a5
    3dac:	03078793          	addi	a5,a5,48
    3db0:	fef58fa3          	sb	a5,-1(a1)
    3db4:	f40f0ce3          	beqz	t5,3d0c <_vfprintf_r+0x17fc>
    3db8:	00074783          	lbu	a5,0(a4)
    3dbc:	f4f618e3          	bne	a2,a5,3d0c <_vfprintf_r+0x17fc>
    3dc0:	f58606e3          	beq	a2,s8,3d0c <_vfprintf_r+0x17fc>
    3dc4:	2a0d9c63          	bnez	s11,407c <_vfprintf_r+0x1b6c>
    3dc8:	00900793          	li	a5,9
    3dcc:	2b67e863          	bltu	a5,s6,407c <_vfprintf_r+0x1b6c>
    3dd0:	00068d13          	mv	s10,a3
    3dd4:	19010793          	addi	a5,sp,400
    3dd8:	02c12023          	sw	a2,32(sp)
    3ddc:	02e12e23          	sw	a4,60(sp)
    3de0:	41a78b33          	sub	s6,a5,s10
    3de4:	000e8c93          	mv	s9,t4
    3de8:	bb5fe06f          	j	299c <_vfprintf_r+0x48c>
    3dec:	0c812703          	lw	a4,200(sp)
    3df0:	52018593          	addi	a1,gp,1312 # 12e30 <keypad_map+0x170>
    3df4:	00b42023          	sw	a1,0(s0)
    3df8:	00160613          	addi	a2,a2,1
    3dfc:	00100593          	li	a1,1
    3e00:	00170713          	addi	a4,a4,1
    3e04:	00b42223          	sw	a1,4(s0)
    3e08:	0cc12623          	sw	a2,204(sp)
    3e0c:	0ce12423          	sw	a4,200(sp)
    3e10:	00700593          	li	a1,7
    3e14:	00840413          	addi	s0,s0,8
    3e18:	52e5c663          	blt	a1,a4,4344 <_vfprintf_r+0x1e34>
    3e1c:	12051c63          	bnez	a0,3f54 <_vfprintf_r+0x1a44>
    3e20:	02012783          	lw	a5,32(sp)
    3e24:	001cf713          	andi	a4,s9,1
    3e28:	00f76733          	or	a4,a4,a5
    3e2c:	00071463          	bnez	a4,3e34 <_vfprintf_r+0x1924>
    3e30:	9d1fe06f          	j	2800 <_vfprintf_r+0x2f0>
    3e34:	03012703          	lw	a4,48(sp)
    3e38:	02c12783          	lw	a5,44(sp)
    3e3c:	00700593          	li	a1,7
    3e40:	00e42023          	sw	a4,0(s0)
    3e44:	0c812703          	lw	a4,200(sp)
    3e48:	00c78633          	add	a2,a5,a2
    3e4c:	00f42223          	sw	a5,4(s0)
    3e50:	00170713          	addi	a4,a4,1
    3e54:	0cc12623          	sw	a2,204(sp)
    3e58:	0ce12423          	sw	a4,200(sp)
    3e5c:	5ae5c463          	blt	a1,a4,4404 <_vfprintf_r+0x1ef4>
    3e60:	00840413          	addi	s0,s0,8
    3e64:	1240006f          	j	3f88 <_vfprintf_r+0x1a78>
    3e68:	00812503          	lw	a0,8(sp)
    3e6c:	6a8010ef          	jal	5514 <__sinit>
    3e70:	f00fe06f          	j	2570 <_vfprintf_r+0x60>
    3e74:	00812503          	lw	a0,8(sp)
    3e78:	0c410613          	addi	a2,sp,196
    3e7c:	00048593          	mv	a1,s1
    3e80:	7dd000ef          	jal	4e5c <__sprint_r>
    3e84:	d0051c63          	bnez	a0,339c <_vfprintf_r+0xe8c>
    3e88:	0cc12603          	lw	a2,204(sp)
    3e8c:	00098413          	mv	s0,s3
    3e90:	a00ff06f          	j	3090 <_vfprintf_r+0xb80>
    3e94:	000d0813          	mv	a6,s10
    3e98:	01042023          	sw	a6,0(s0)
    3e9c:	01542223          	sw	s5,4(s0)
    3ea0:	01560633          	add	a2,a2,s5
    3ea4:	00178793          	addi	a5,a5,1
    3ea8:	0cc12623          	sw	a2,204(sp)
    3eac:	0cf12423          	sw	a5,200(sp)
    3eb0:	00700713          	li	a4,7
    3eb4:	00f74463          	blt	a4,a5,3ebc <_vfprintf_r+0x19ac>
    3eb8:	945fe06f          	j	27fc <_vfprintf_r+0x2ec>
    3ebc:	df5fe06f          	j	2cb0 <_vfprintf_r+0x7a0>
    3ec0:	0d012783          	lw	a5,208(sp)
    3ec4:	08010593          	addi	a1,sp,128
    3ec8:	09010513          	addi	a0,sp,144
    3ecc:	08f12823          	sw	a5,144(sp)
    3ed0:	0d412783          	lw	a5,212(sp)
    3ed4:	08012023          	sw	zero,128(sp)
    3ed8:	08012223          	sw	zero,132(sp)
    3edc:	08f12a23          	sw	a5,148(sp)
    3ee0:	0d812783          	lw	a5,216(sp)
    3ee4:	08012423          	sw	zero,136(sp)
    3ee8:	08012623          	sw	zero,140(sp)
    3eec:	08f12c23          	sw	a5,152(sp)
    3ef0:	0dc12783          	lw	a5,220(sp)
    3ef4:	08f12e23          	sw	a5,156(sp)
    3ef8:	3d00b0ef          	jal	f2c8 <__letf2>
    3efc:	01012883          	lw	a7,16(sp)
    3f00:	260546e3          	bltz	a0,496c <_vfprintf_r+0x245c>
    3f04:	0a714703          	lbu	a4,167(sp)
    3f08:	04700793          	li	a5,71
    3f0c:	4717d063          	bge	a5,a7,436c <_vfprintf_r+0x1e5c>
    3f10:	4e418d13          	addi	s10,gp,1252 # 12df4 <keypad_map+0x134>
    3f14:	00012823          	sw	zero,16(sp)
    3f18:	02012423          	sw	zero,40(sp)
    3f1c:	02012223          	sw	zero,36(sp)
    3f20:	00012e23          	sw	zero,28(sp)
    3f24:	f7fcfc93          	andi	s9,s9,-129
    3f28:	00300d93          	li	s11,3
    3f2c:	00300b13          	li	s6,3
    3f30:	00000a93          	li	s5,0
    3f34:	00070463          	beqz	a4,3f3c <_vfprintf_r+0x1a2c>
    3f38:	a89fe06f          	j	29c0 <_vfprintf_r+0x4b0>
    3f3c:	ff8fe06f          	j	2734 <_vfprintf_r+0x224>
    3f40:	01412783          	lw	a5,20(sp)
    3f44:	00c12703          	lw	a4,12(sp)
    3f48:	0007a783          	lw	a5,0(a5)
    3f4c:	00e7a023          	sw	a4,0(a5)
    3f50:	884ff06f          	j	2fd4 <_vfprintf_r+0xac4>
    3f54:	03012703          	lw	a4,48(sp)
    3f58:	02c12783          	lw	a5,44(sp)
    3f5c:	00700593          	li	a1,7
    3f60:	00e42023          	sw	a4,0(s0)
    3f64:	0c812703          	lw	a4,200(sp)
    3f68:	00c78633          	add	a2,a5,a2
    3f6c:	00f42223          	sw	a5,4(s0)
    3f70:	00170713          	addi	a4,a4,1
    3f74:	0cc12623          	sw	a2,204(sp)
    3f78:	0ce12423          	sw	a4,200(sp)
    3f7c:	00840413          	addi	s0,s0,8
    3f80:	48e5c263          	blt	a1,a4,4404 <_vfprintf_r+0x1ef4>
    3f84:	34054ee3          	bltz	a0,4ae0 <_vfprintf_r+0x25d0>
    3f88:	02012783          	lw	a5,32(sp)
    3f8c:	00170713          	addi	a4,a4,1
    3f90:	01a42023          	sw	s10,0(s0)
    3f94:	00c78633          	add	a2,a5,a2
    3f98:	00f42223          	sw	a5,4(s0)
    3f9c:	0cc12623          	sw	a2,204(sp)
    3fa0:	0ce12423          	sw	a4,200(sp)
    3fa4:	00700793          	li	a5,7
    3fa8:	00e7c463          	blt	a5,a4,3fb0 <_vfprintf_r+0x1aa0>
    3fac:	851fe06f          	j	27fc <_vfprintf_r+0x2ec>
    3fb0:	d01fe06f          	j	2cb0 <_vfprintf_r+0x7a0>
    3fb4:	000d0513          	mv	a0,s10
    3fb8:	03112c23          	sw	a7,56(sp)
    3fbc:	5d4020ef          	jal	6590 <strlen>
    3fc0:	0a714703          	lbu	a4,167(sp)
    3fc4:	fff54693          	not	a3,a0
    3fc8:	41f6d693          	srai	a3,a3,0x1f
    3fcc:	01812a23          	sw	s8,20(sp)
    3fd0:	00012823          	sw	zero,16(sp)
    3fd4:	02012423          	sw	zero,40(sp)
    3fd8:	02012223          	sw	zero,36(sp)
    3fdc:	00012e23          	sw	zero,28(sp)
    3fe0:	03812883          	lw	a7,56(sp)
    3fe4:	00050b13          	mv	s6,a0
    3fe8:	00d57db3          	and	s11,a0,a3
    3fec:	00000a93          	li	s5,0
    3ff0:	00070463          	beqz	a4,3ff8 <_vfprintf_r+0x1ae8>
    3ff4:	9cdfe06f          	j	29c0 <_vfprintf_r+0x4b0>
    3ff8:	f3cfe06f          	j	2734 <_vfprintf_r+0x224>
    3ffc:	00090813          	mv	a6,s2
    4000:	01c12903          	lw	s2,28(sp)
    4004:	008c0c33          	add	s8,s8,s0
    4008:	001a8a93          	addi	s5,s5,1
    400c:	010b2023          	sw	a6,0(s6)
    4010:	c5dfe06f          	j	2c6c <_vfprintf_r+0x75c>
    4014:	0dc12783          	lw	a5,220(sp)
    4018:	3c07c463          	bltz	a5,43e0 <_vfprintf_r+0x1ed0>
    401c:	0a714703          	lbu	a4,167(sp)
    4020:	04700793          	li	a5,71
    4024:	1b17cae3          	blt	a5,a7,49d8 <_vfprintf_r+0x24c8>
    4028:	4e818d13          	addi	s10,gp,1256 # 12df8 <keypad_map+0x138>
    402c:	ee9ff06f          	j	3f14 <_vfprintf_r+0x1a04>
    4030:	00040813          	mv	a6,s0
    4034:	00078413          	mv	s0,a5
    4038:	01560633          	add	a2,a2,s5
    403c:	00170713          	addi	a4,a4,1
    4040:	01042023          	sw	a6,0(s0)
    4044:	01542223          	sw	s5,4(s0)
    4048:	0cc12623          	sw	a2,204(sp)
    404c:	0ce12423          	sw	a4,200(sp)
    4050:	00700593          	li	a1,7
    4054:	00840413          	addi	s0,s0,8
    4058:	dae5dc63          	bge	a1,a4,3610 <_vfprintf_r+0x1100>
    405c:	00812503          	lw	a0,8(sp)
    4060:	0c410613          	addi	a2,sp,196
    4064:	00048593          	mv	a1,s1
    4068:	5f5000ef          	jal	4e5c <__sprint_r>
    406c:	b2051863          	bnez	a0,339c <_vfprintf_r+0xe8c>
    4070:	0cc12603          	lw	a2,204(sp)
    4074:	00098413          	mv	s0,s3
    4078:	d98ff06f          	j	3610 <_vfprintf_r+0x1100>
    407c:	04812783          	lw	a5,72(sp)
    4080:	04412583          	lw	a1,68(sp)
    4084:	03012c23          	sw	a6,56(sp)
    4088:	40f686b3          	sub	a3,a3,a5
    408c:	00078613          	mv	a2,a5
    4090:	00068513          	mv	a0,a3
    4094:	03e12423          	sw	t5,40(sp)
    4098:	03d12223          	sw	t4,36(sp)
    409c:	03112023          	sw	a7,32(sp)
    40a0:	00e12e23          	sw	a4,28(sp)
    40a4:	00d12823          	sw	a3,16(sp)
    40a8:	605010ef          	jal	5eac <strncpy>
    40ac:	016d37b3          	sltu	a5,s10,s6
    40b0:	00500613          	li	a2,5
    40b4:	00fd07b3          	add	a5,s10,a5
    40b8:	02c7f7b3          	remu	a5,a5,a2
    40bc:	01c12703          	lw	a4,28(sp)
    40c0:	ccccd337          	lui	t1,0xccccd
    40c4:	ccccd537          	lui	a0,0xccccd
    40c8:	00174583          	lbu	a1,1(a4)
    40cc:	ccd30313          	addi	t1,t1,-819 # cccccccd <_memory_end+0xcccacccd>
    40d0:	ccc50513          	addi	a0,a0,-820 # cccccccc <_memory_end+0xcccacccc>
    40d4:	00b035b3          	snez	a1,a1
    40d8:	00b70733          	add	a4,a4,a1
    40dc:	01012683          	lw	a3,16(sp)
    40e0:	02012883          	lw	a7,32(sp)
    40e4:	02412e83          	lw	t4,36(sp)
    40e8:	02812f03          	lw	t5,40(sp)
    40ec:	03812803          	lw	a6,56(sp)
    40f0:	00000613          	li	a2,0
    40f4:	00500e13          	li	t3,5
    40f8:	40fb07b3          	sub	a5,s6,a5
    40fc:	00fb35b3          	sltu	a1,s6,a5
    4100:	40bd85b3          	sub	a1,s11,a1
    4104:	02a78533          	mul	a0,a5,a0
    4108:	026585b3          	mul	a1,a1,t1
    410c:	0267bfb3          	mulhu	t6,a5,t1
    4110:	00a585b3          	add	a1,a1,a0
    4114:	02678533          	mul	a0,a5,t1
    4118:	01f585b3          	add	a1,a1,t6
    411c:	01f59793          	slli	a5,a1,0x1f
    4120:	0015d593          	srli	a1,a1,0x1
    4124:	00155513          	srli	a0,a0,0x1
    4128:	00a7e7b3          	or	a5,a5,a0
    412c:	c25ff06f          	j	3d50 <_vfprintf_r+0x1840>
    4130:	02012783          	lw	a5,32(sp)
    4134:	02412b03          	lw	s6,36(sp)
    4138:	000138b7          	lui	a7,0x13
    413c:	00fd07b3          	add	a5,s10,a5
    4140:	03212c23          	sw	s2,56(sp)
    4144:	05912623          	sw	s9,76(sp)
    4148:	05712823          	sw	s7,80(sp)
    414c:	03b12223          	sw	s11,36(sp)
    4150:	02812d83          	lw	s11,40(sp)
    4154:	03a12423          	sw	s10,40(sp)
    4158:	03c12c83          	lw	s9,60(sp)
    415c:	000c0d13          	mv	s10,s8
    4160:	00812903          	lw	s2,8(sp)
    4164:	04812c03          	lw	s8,72(sp)
    4168:	00700813          	li	a6,7
    416c:	01000713          	li	a4,16
    4170:	1a888a93          	addi	s5,a7,424 # 131a8 <zeroes.0>
    4174:	00040593          	mv	a1,s0
    4178:	00078b93          	mv	s7,a5
    417c:	09605663          	blez	s6,4208 <_vfprintf_r+0x1cf8>
    4180:	17b05063          	blez	s11,42e0 <_vfprintf_r+0x1dd0>
    4184:	fffd8d93          	addi	s11,s11,-1
    4188:	04412783          	lw	a5,68(sp)
    418c:	01860633          	add	a2,a2,s8
    4190:	0185a223          	sw	s8,4(a1)
    4194:	00f5a023          	sw	a5,0(a1)
    4198:	0c812783          	lw	a5,200(sp)
    419c:	0cc12623          	sw	a2,204(sp)
    41a0:	00858593          	addi	a1,a1,8
    41a4:	00178793          	addi	a5,a5,1
    41a8:	0cf12423          	sw	a5,200(sp)
    41ac:	14f84063          	blt	a6,a5,42ec <_vfprintf_r+0x1ddc>
    41b0:	000cc683          	lbu	a3,0(s9)
    41b4:	41ab8433          	sub	s0,s7,s10
    41b8:	0086d463          	bge	a3,s0,41c0 <_vfprintf_r+0x1cb0>
    41bc:	00068413          	mv	s0,a3
    41c0:	02805663          	blez	s0,41ec <_vfprintf_r+0x1cdc>
    41c4:	0c812683          	lw	a3,200(sp)
    41c8:	00860633          	add	a2,a2,s0
    41cc:	01a5a023          	sw	s10,0(a1)
    41d0:	00168693          	addi	a3,a3,1
    41d4:	0085a223          	sw	s0,4(a1)
    41d8:	0cc12623          	sw	a2,204(sp)
    41dc:	0cd12423          	sw	a3,200(sp)
    41e0:	12d84a63          	blt	a6,a3,4314 <_vfprintf_r+0x1e04>
    41e4:	000cc683          	lbu	a3,0(s9)
    41e8:	00858593          	addi	a1,a1,8
    41ec:	fff44513          	not	a0,s0
    41f0:	41f55513          	srai	a0,a0,0x1f
    41f4:	00a477b3          	and	a5,s0,a0
    41f8:	40f68433          	sub	s0,a3,a5
    41fc:	04804263          	bgtz	s0,4240 <_vfprintf_r+0x1d30>
    4200:	00dd0d33          	add	s10,s10,a3
    4204:	f7604ee3          	bgtz	s6,4180 <_vfprintf_r+0x1c70>
    4208:	f7b04ee3          	bgtz	s11,4184 <_vfprintf_r+0x1c74>
    420c:	02012783          	lw	a5,32(sp)
    4210:	000d0c13          	mv	s8,s10
    4214:	02812d03          	lw	s10,40(sp)
    4218:	03912e23          	sw	s9,60(sp)
    421c:	03812903          	lw	s2,56(sp)
    4220:	00fd0733          	add	a4,s10,a5
    4224:	04c12c83          	lw	s9,76(sp)
    4228:	05012b83          	lw	s7,80(sp)
    422c:	02412d83          	lw	s11,36(sp)
    4230:	00058413          	mv	s0,a1
    4234:	bf877663          	bgeu	a4,s8,3620 <_vfprintf_r+0x1110>
    4238:	00070c13          	mv	s8,a4
    423c:	be4ff06f          	j	3620 <_vfprintf_r+0x1110>
    4240:	00013f37          	lui	t5,0x13
    4244:	0c812683          	lw	a3,200(sp)
    4248:	1a8f0f13          	addi	t5,t5,424 # 131a8 <zeroes.0>
    424c:	06875463          	bge	a4,s0,42b4 <_vfprintf_r+0x1da4>
    4250:	01512e23          	sw	s5,28(sp)
    4254:	00c0006f          	j	4260 <_vfprintf_r+0x1d50>
    4258:	ff040413          	addi	s0,s0,-16
    425c:	04875a63          	bge	a4,s0,42b0 <_vfprintf_r+0x1da0>
    4260:	01060613          	addi	a2,a2,16
    4264:	00168693          	addi	a3,a3,1
    4268:	0155a023          	sw	s5,0(a1)
    426c:	00e5a223          	sw	a4,4(a1)
    4270:	0cc12623          	sw	a2,204(sp)
    4274:	0cd12423          	sw	a3,200(sp)
    4278:	00858593          	addi	a1,a1,8
    427c:	fcd85ee3          	bge	a6,a3,4258 <_vfprintf_r+0x1d48>
    4280:	0c410613          	addi	a2,sp,196
    4284:	00048593          	mv	a1,s1
    4288:	00090513          	mv	a0,s2
    428c:	3d1000ef          	jal	4e5c <__sprint_r>
    4290:	90051663          	bnez	a0,339c <_vfprintf_r+0xe8c>
    4294:	01000713          	li	a4,16
    4298:	ff040413          	addi	s0,s0,-16
    429c:	0cc12603          	lw	a2,204(sp)
    42a0:	0c812683          	lw	a3,200(sp)
    42a4:	00098593          	mv	a1,s3
    42a8:	00700813          	li	a6,7
    42ac:	fa874ae3          	blt	a4,s0,4260 <_vfprintf_r+0x1d50>
    42b0:	01c12f03          	lw	t5,28(sp)
    42b4:	00860633          	add	a2,a2,s0
    42b8:	00168693          	addi	a3,a3,1
    42bc:	01e5a023          	sw	t5,0(a1)
    42c0:	0085a223          	sw	s0,4(a1)
    42c4:	0cc12623          	sw	a2,204(sp)
    42c8:	0cd12423          	sw	a3,200(sp)
    42cc:	64d84a63          	blt	a6,a3,4920 <_vfprintf_r+0x2410>
    42d0:	000cc683          	lbu	a3,0(s9)
    42d4:	00858593          	addi	a1,a1,8
    42d8:	00dd0d33          	add	s10,s10,a3
    42dc:	f29ff06f          	j	4204 <_vfprintf_r+0x1cf4>
    42e0:	fffc8c93          	addi	s9,s9,-1
    42e4:	fffb0b13          	addi	s6,s6,-1
    42e8:	ea1ff06f          	j	4188 <_vfprintf_r+0x1c78>
    42ec:	0c410613          	addi	a2,sp,196
    42f0:	00048593          	mv	a1,s1
    42f4:	00090513          	mv	a0,s2
    42f8:	365000ef          	jal	4e5c <__sprint_r>
    42fc:	8a051063          	bnez	a0,339c <_vfprintf_r+0xe8c>
    4300:	0cc12603          	lw	a2,204(sp)
    4304:	00098593          	mv	a1,s3
    4308:	01000713          	li	a4,16
    430c:	00700813          	li	a6,7
    4310:	ea1ff06f          	j	41b0 <_vfprintf_r+0x1ca0>
    4314:	0c410613          	addi	a2,sp,196
    4318:	00048593          	mv	a1,s1
    431c:	00090513          	mv	a0,s2
    4320:	33d000ef          	jal	4e5c <__sprint_r>
    4324:	00050463          	beqz	a0,432c <_vfprintf_r+0x1e1c>
    4328:	874ff06f          	j	339c <_vfprintf_r+0xe8c>
    432c:	000cc683          	lbu	a3,0(s9)
    4330:	0cc12603          	lw	a2,204(sp)
    4334:	00098593          	mv	a1,s3
    4338:	01000713          	li	a4,16
    433c:	00700813          	li	a6,7
    4340:	eadff06f          	j	41ec <_vfprintf_r+0x1cdc>
    4344:	00812503          	lw	a0,8(sp)
    4348:	0c410613          	addi	a2,sp,196
    434c:	00048593          	mv	a1,s1
    4350:	30d000ef          	jal	4e5c <__sprint_r>
    4354:	00050463          	beqz	a0,435c <_vfprintf_r+0x1e4c>
    4358:	844ff06f          	j	339c <_vfprintf_r+0xe8c>
    435c:	0ac12503          	lw	a0,172(sp)
    4360:	0cc12603          	lw	a2,204(sp)
    4364:	00098413          	mv	s0,s3
    4368:	ab5ff06f          	j	3e1c <_vfprintf_r+0x190c>
    436c:	4e018d13          	addi	s10,gp,1248 # 12df0 <keypad_map+0x130>
    4370:	ba5ff06f          	j	3f14 <_vfprintf_r+0x1a04>
    4374:	00812503          	lw	a0,8(sp)
    4378:	0c410613          	addi	a2,sp,196
    437c:	00048593          	mv	a1,s1
    4380:	2dd000ef          	jal	4e5c <__sprint_r>
    4384:	00050463          	beqz	a0,438c <_vfprintf_r+0x1e7c>
    4388:	814ff06f          	j	339c <_vfprintf_r+0xe8c>
    438c:	0cc12603          	lw	a2,204(sp)
    4390:	00098413          	mv	s0,s3
    4394:	a64ff06f          	j	35f8 <_vfprintf_r+0x10e8>
    4398:	00600b13          	li	s6,6
    439c:	e00ff06f          	j	399c <_vfprintf_r+0x148c>
    43a0:	01412783          	lw	a5,20(sp)
    43a4:	00c12703          	lw	a4,12(sp)
    43a8:	0007a783          	lw	a5,0(a5)
    43ac:	00e79023          	sh	a4,0(a5)
    43b0:	c25fe06f          	j	2fd4 <_vfprintf_r+0xac4>
    43b4:	018b1b13          	slli	s6,s6,0x18
    43b8:	418b5b13          	srai	s6,s6,0x18
    43bc:	41fb5d93          	srai	s11,s6,0x1f
    43c0:	000d8793          	mv	a5,s11
    43c4:	db0fe06f          	j	2974 <_vfprintf_r+0x464>
    43c8:	0ffb7b13          	zext.b	s6,s6
    43cc:	00000d93          	li	s11,0
    43d0:	e20fe06f          	j	29f0 <_vfprintf_r+0x4e0>
    43d4:	0ffb7b13          	zext.b	s6,s6
    43d8:	00000d93          	li	s11,0
    43dc:	d34ff06f          	j	3910 <_vfprintf_r+0x1400>
    43e0:	02d00793          	li	a5,45
    43e4:	0af103a3          	sb	a5,167(sp)
    43e8:	02d00713          	li	a4,45
    43ec:	c35ff06f          	j	4020 <_vfprintf_r+0x1b10>
    43f0:	00812503          	lw	a0,8(sp)
    43f4:	0c410613          	addi	a2,sp,196
    43f8:	00048593          	mv	a1,s1
    43fc:	261000ef          	jal	4e5c <__sprint_r>
    4400:	c60fe06f          	j	2860 <_vfprintf_r+0x350>
    4404:	00812503          	lw	a0,8(sp)
    4408:	0c410613          	addi	a2,sp,196
    440c:	00048593          	mv	a1,s1
    4410:	24d000ef          	jal	4e5c <__sprint_r>
    4414:	00050463          	beqz	a0,441c <_vfprintf_r+0x1f0c>
    4418:	f85fe06f          	j	339c <_vfprintf_r+0xe8c>
    441c:	0ac12503          	lw	a0,172(sp)
    4420:	0cc12603          	lw	a2,204(sp)
    4424:	0c812703          	lw	a4,200(sp)
    4428:	00098413          	mv	s0,s3
    442c:	b59ff06f          	j	3f84 <_vfprintf_r+0x1a74>
    4430:	01550733          	add	a4,a0,s5
    4434:	04700613          	li	a2,71
    4438:	08010593          	addi	a1,sp,128
    443c:	000b0513          	mv	a0,s6
    4440:	02e12223          	sw	a4,36(sp)
    4444:	02c12023          	sw	a2,32(sp)
    4448:	01112e23          	sw	a7,28(sp)
    444c:	09f12823          	sw	t6,144(sp)
    4450:	09e12a23          	sw	t5,148(sp)
    4454:	09d12c23          	sw	t4,152(sp)
    4458:	09812e23          	sw	s8,156(sp)
    445c:	08012023          	sw	zero,128(sp)
    4460:	08012223          	sw	zero,132(sp)
    4464:	08012423          	sw	zero,136(sp)
    4468:	08012623          	sw	zero,140(sp)
    446c:	4610a0ef          	jal	f0cc <__eqtf2>
    4470:	01c12883          	lw	a7,28(sp)
    4474:	02012603          	lw	a2,32(sp)
    4478:	02412703          	lw	a4,36(sp)
    447c:	56050263          	beqz	a0,49e0 <_vfprintf_r+0x24d0>
    4480:	0bc12783          	lw	a5,188(sp)
    4484:	00e7fe63          	bgeu	a5,a4,44a0 <_vfprintf_r+0x1f90>
    4488:	03000593          	li	a1,48
    448c:	00178693          	addi	a3,a5,1
    4490:	0ad12e23          	sw	a3,188(sp)
    4494:	00b78023          	sb	a1,0(a5)
    4498:	0bc12783          	lw	a5,188(sp)
    449c:	fee7e8e3          	bltu	a5,a4,448c <_vfprintf_r+0x1f7c>
    44a0:	0ac12703          	lw	a4,172(sp)
    44a4:	00e12e23          	sw	a4,28(sp)
    44a8:	41a787b3          	sub	a5,a5,s10
    44ac:	04700713          	li	a4,71
    44b0:	02f12023          	sw	a5,32(sp)
    44b4:	e8e60063          	beq	a2,a4,3b34 <_vfprintf_r+0x1624>
    44b8:	04600713          	li	a4,70
    44bc:	5ae60c63          	beq	a2,a4,4a74 <_vfprintf_r+0x2564>
    44c0:	01c12783          	lw	a5,28(sp)
    44c4:	fff78713          	addi	a4,a5,-1
    44c8:	e88ff06f          	j	3b50 <_vfprintf_r+0x1640>
    44cc:	001a8693          	addi	a3,s5,1
    44d0:	00200613          	li	a2,2
    44d4:	00812503          	lw	a0,8(sp)
    44d8:	09010b13          	addi	s6,sp,144
    44dc:	0ac10713          	addi	a4,sp,172
    44e0:	000b0593          	mv	a1,s6
    44e4:	0bc10813          	addi	a6,sp,188
    44e8:	0b010793          	addi	a5,sp,176
    44ec:	05112823          	sw	a7,80(sp)
    44f0:	02d12423          	sw	a3,40(sp)
    44f4:	09f12823          	sw	t6,144(sp)
    44f8:	03f12223          	sw	t6,36(sp)
    44fc:	09e12a23          	sw	t5,148(sp)
    4500:	03e12023          	sw	t5,32(sp)
    4504:	09d12c23          	sw	t4,152(sp)
    4508:	01d12e23          	sw	t4,28(sp)
    450c:	09812e23          	sw	s8,156(sp)
    4510:	6e0020ef          	jal	6bf0 <_ldtoa_r>
    4514:	05012883          	lw	a7,80(sp)
    4518:	02812683          	lw	a3,40(sp)
    451c:	04600593          	li	a1,70
    4520:	fdf8f613          	andi	a2,a7,-33
    4524:	01c12e83          	lw	t4,28(sp)
    4528:	02012f03          	lw	t5,32(sp)
    452c:	02412f83          	lw	t6,36(sp)
    4530:	00050d13          	mv	s10,a0
    4534:	00d50733          	add	a4,a0,a3
    4538:	02b610e3          	bne	a2,a1,4d58 <_vfprintf_r+0x2848>
    453c:	000d4503          	lbu	a0,0(s10)
    4540:	03000593          	li	a1,48
    4544:	4ab50663          	beq	a0,a1,49f0 <_vfprintf_r+0x24e0>
    4548:	0ac12683          	lw	a3,172(sp)
    454c:	08010593          	addi	a1,sp,128
    4550:	00d70733          	add	a4,a4,a3
    4554:	ee9ff06f          	j	443c <_vfprintf_r+0x1f2c>
    4558:	09010b13          	addi	s6,sp,144
    455c:	08010593          	addi	a1,sp,128
    4560:	0ac10613          	addi	a2,sp,172
    4564:	000b0513          	mv	a0,s6
    4568:	05112023          	sw	a7,64(sp)
    456c:	09f12023          	sw	t6,128(sp)
    4570:	09e12223          	sw	t5,132(sp)
    4574:	09d12423          	sw	t4,136(sp)
    4578:	00b12e23          	sw	a1,28(sp)
    457c:	09812623          	sw	s8,140(sp)
    4580:	09c020ef          	jal	661c <frexpl>
    4584:	09012703          	lw	a4,144(sp)
    4588:	01c12583          	lw	a1,28(sp)
    458c:	07010613          	addi	a2,sp,112
    4590:	08e12023          	sw	a4,128(sp)
    4594:	09412703          	lw	a4,148(sp)
    4598:	000b0513          	mv	a0,s6
    459c:	06012823          	sw	zero,112(sp)
    45a0:	08e12223          	sw	a4,132(sp)
    45a4:	09812703          	lw	a4,152(sp)
    45a8:	06012a23          	sw	zero,116(sp)
    45ac:	06012c23          	sw	zero,120(sp)
    45b0:	08e12423          	sw	a4,136(sp)
    45b4:	09c12703          	lw	a4,156(sp)
    45b8:	08e12623          	sw	a4,140(sp)
    45bc:	3ffc0737          	lui	a4,0x3ffc0
    45c0:	06e12e23          	sw	a4,124(sp)
    45c4:	6350a0ef          	jal	f3f8 <__multf3>
    45c8:	01c12583          	lw	a1,28(sp)
    45cc:	09012f03          	lw	t5,144(sp)
    45d0:	09412e83          	lw	t4,148(sp)
    45d4:	09812803          	lw	a6,152(sp)
    45d8:	000b0513          	mv	a0,s6
    45dc:	02b12423          	sw	a1,40(sp)
    45e0:	03e12223          	sw	t5,36(sp)
    45e4:	03d12023          	sw	t4,32(sp)
    45e8:	01012e23          	sw	a6,28(sp)
    45ec:	08012023          	sw	zero,128(sp)
    45f0:	08012223          	sw	zero,132(sp)
    45f4:	08012423          	sw	zero,136(sp)
    45f8:	08012623          	sw	zero,140(sp)
    45fc:	2d10a0ef          	jal	f0cc <__eqtf2>
    4600:	09c12d83          	lw	s11,156(sp)
    4604:	01c12803          	lw	a6,28(sp)
    4608:	02012e83          	lw	t4,32(sp)
    460c:	02412f03          	lw	t5,36(sp)
    4610:	02812583          	lw	a1,40(sp)
    4614:	04012883          	lw	a7,64(sp)
    4618:	00051663          	bnez	a0,4624 <_vfprintf_r+0x2114>
    461c:	00100713          	li	a4,1
    4620:	0ae12623          	sw	a4,172(sp)
    4624:	06100713          	li	a4,97
    4628:	6ae88063          	beq	a7,a4,4cc8 <_vfprintf_r+0x27b8>
    462c:	50418793          	addi	a5,gp,1284 # 12e14 <keypad_map+0x154>
    4630:	00f12e23          	sw	a5,28(sp)
    4634:	03212023          	sw	s2,32(sp)
    4638:	03912423          	sw	s9,40(sp)
    463c:	05712023          	sw	s7,64(sp)
    4640:	04812623          	sw	s0,76(sp)
    4644:	000d0913          	mv	s2,s10
    4648:	04912823          	sw	s1,80(sp)
    464c:	05a12a23          	sw	s10,84(sp)
    4650:	01c12483          	lw	s1,28(sp)
    4654:	fffa8a93          	addi	s5,s5,-1
    4658:	03112223          	sw	a7,36(sp)
    465c:	000f0b93          	mv	s7,t5
    4660:	000e8c13          	mv	s8,t4
    4664:	00080c93          	mv	s9,a6
    4668:	000d8d13          	mv	s10,s11
    466c:	00058413          	mv	s0,a1
    4670:	03c0006f          	j	46ac <_vfprintf_r+0x219c>
    4674:	00040593          	mv	a1,s0
    4678:	000b0513          	mv	a0,s6
    467c:	09712823          	sw	s7,144(sp)
    4680:	09812a23          	sw	s8,148(sp)
    4684:	09912c23          	sw	s9,152(sp)
    4688:	09a12e23          	sw	s10,156(sp)
    468c:	08012023          	sw	zero,128(sp)
    4690:	08012223          	sw	zero,132(sp)
    4694:	08012423          	sw	zero,136(sp)
    4698:	08012623          	sw	zero,140(sp)
    469c:	fffa8d93          	addi	s11,s5,-1
    46a0:	22d0a0ef          	jal	f0cc <__eqtf2>
    46a4:	5c050863          	beqz	a0,4c74 <_vfprintf_r+0x2764>
    46a8:	000d8a93          	mv	s5,s11
    46ac:	400307b7          	lui	a5,0x40030
    46b0:	07010613          	addi	a2,sp,112
    46b4:	00040593          	mv	a1,s0
    46b8:	000b0513          	mv	a0,s6
    46bc:	06f12e23          	sw	a5,124(sp)
    46c0:	09712023          	sw	s7,128(sp)
    46c4:	09812223          	sw	s8,132(sp)
    46c8:	09912423          	sw	s9,136(sp)
    46cc:	09a12623          	sw	s10,140(sp)
    46d0:	06012823          	sw	zero,112(sp)
    46d4:	06012a23          	sw	zero,116(sp)
    46d8:	06012c23          	sw	zero,120(sp)
    46dc:	51d0a0ef          	jal	f3f8 <__multf3>
    46e0:	000b0513          	mv	a0,s6
    46e4:	2340d0ef          	jal	11918 <__fixtfsi>
    46e8:	00050593          	mv	a1,a0
    46ec:	00050d93          	mv	s11,a0
    46f0:	000b0513          	mv	a0,s6
    46f4:	09012d03          	lw	s10,144(sp)
    46f8:	09412c83          	lw	s9,148(sp)
    46fc:	09812c03          	lw	s8,152(sp)
    4700:	09c12b83          	lw	s7,156(sp)
    4704:	30c0d0ef          	jal	11a10 <__floatsitf>
    4708:	09012683          	lw	a3,144(sp)
    470c:	06010613          	addi	a2,sp,96
    4710:	07010593          	addi	a1,sp,112
    4714:	06d12023          	sw	a3,96(sp)
    4718:	09412683          	lw	a3,148(sp)
    471c:	00040513          	mv	a0,s0
    4720:	07a12823          	sw	s10,112(sp)
    4724:	06d12223          	sw	a3,100(sp)
    4728:	09812683          	lw	a3,152(sp)
    472c:	07912a23          	sw	s9,116(sp)
    4730:	07812c23          	sw	s8,120(sp)
    4734:	06d12423          	sw	a3,104(sp)
    4738:	09c12683          	lw	a3,156(sp)
    473c:	07712e23          	sw	s7,124(sp)
    4740:	06d12623          	sw	a3,108(sp)
    4744:	4b90b0ef          	jal	103fc <__subtf3>
    4748:	01b486b3          	add	a3,s1,s11
    474c:	0006c603          	lbu	a2,0(a3)
    4750:	00090f93          	mv	t6,s2
    4754:	00190913          	addi	s2,s2,1
    4758:	08012b83          	lw	s7,128(sp)
    475c:	08412c03          	lw	s8,132(sp)
    4760:	08812c83          	lw	s9,136(sp)
    4764:	08c12d03          	lw	s10,140(sp)
    4768:	fff00793          	li	a5,-1
    476c:	fec90fa3          	sb	a2,-1(s2)
    4770:	f0fa92e3          	bne	s5,a5,4674 <_vfprintf_r+0x2164>
    4774:	02412883          	lw	a7,36(sp)
    4778:	000b8f13          	mv	t5,s7
    477c:	000c0e93          	mv	t4,s8
    4780:	000c8813          	mv	a6,s9
    4784:	00040593          	mv	a1,s0
    4788:	05b12c23          	sw	s11,88(sp)
    478c:	3ffe0ab7          	lui	s5,0x3ffe0
    4790:	000d0d93          	mv	s11,s10
    4794:	000b0513          	mv	a0,s6
    4798:	05112e23          	sw	a7,92(sp)
    479c:	03f12223          	sw	t6,36(sp)
    47a0:	05012483          	lw	s1,80(sp)
    47a4:	04012b83          	lw	s7,64(sp)
    47a8:	02812c83          	lw	s9,40(sp)
    47ac:	04c12403          	lw	s0,76(sp)
    47b0:	09e12823          	sw	t5,144(sp)
    47b4:	05e12823          	sw	t5,80(sp)
    47b8:	09d12a23          	sw	t4,148(sp)
    47bc:	05d12623          	sw	t4,76(sp)
    47c0:	09012c23          	sw	a6,152(sp)
    47c4:	05012023          	sw	a6,64(sp)
    47c8:	09b12e23          	sw	s11,156(sp)
    47cc:	08012023          	sw	zero,128(sp)
    47d0:	08012223          	sw	zero,132(sp)
    47d4:	08012423          	sw	zero,136(sp)
    47d8:	09512623          	sw	s5,140(sp)
    47dc:	02b12423          	sw	a1,40(sp)
    47e0:	1b90a0ef          	jal	f198 <__getf2>
    47e4:	00090c13          	mv	s8,s2
    47e8:	05412d03          	lw	s10,84(sp)
    47ec:	02012903          	lw	s2,32(sp)
    47f0:	02412f83          	lw	t6,36(sp)
    47f4:	05c12883          	lw	a7,92(sp)
    47f8:	02a04663          	bgtz	a0,4824 <_vfprintf_r+0x2314>
    47fc:	02812583          	lw	a1,40(sp)
    4800:	000b0513          	mv	a0,s6
    4804:	03112023          	sw	a7,32(sp)
    4808:	0c50a0ef          	jal	f0cc <__eqtf2>
    480c:	02012883          	lw	a7,32(sp)
    4810:	04051e63          	bnez	a0,486c <_vfprintf_r+0x235c>
    4814:	05812783          	lw	a5,88(sp)
    4818:	02412f83          	lw	t6,36(sp)
    481c:	0017f693          	andi	a3,a5,1
    4820:	04068663          	beqz	a3,486c <_vfprintf_r+0x235c>
    4824:	01c12783          	lw	a5,28(sp)
    4828:	0bf12e23          	sw	t6,188(sp)
    482c:	fffc4603          	lbu	a2,-1(s8)
    4830:	00f7c583          	lbu	a1,15(a5) # 4003000f <_memory_end+0x4001000f>
    4834:	000c0693          	mv	a3,s8
    4838:	02b61063          	bne	a2,a1,4858 <_vfprintf_r+0x2348>
    483c:	03000513          	li	a0,48
    4840:	fea68fa3          	sb	a0,-1(a3)
    4844:	0bc12683          	lw	a3,188(sp)
    4848:	fff68793          	addi	a5,a3,-1
    484c:	0af12e23          	sw	a5,188(sp)
    4850:	fff6c603          	lbu	a2,-1(a3)
    4854:	fec586e3          	beq	a1,a2,4840 <_vfprintf_r+0x2330>
    4858:	00160593          	addi	a1,a2,1
    485c:	03900513          	li	a0,57
    4860:	0ff5f593          	zext.b	a1,a1
    4864:	04a60463          	beq	a2,a0,48ac <_vfprintf_r+0x239c>
    4868:	feb68fa3          	sb	a1,-1(a3)
    486c:	0ac12783          	lw	a5,172(sp)
    4870:	41ac0733          	sub	a4,s8,s10
    4874:	02e12023          	sw	a4,32(sp)
    4878:	fff78713          	addi	a4,a5,-1
    487c:	00f12e23          	sw	a5,28(sp)
    4880:	06100613          	li	a2,97
    4884:	0ae12623          	sw	a4,172(sp)
    4888:	07000693          	li	a3,112
    488c:	00c88663          	beq	a7,a2,4898 <_vfprintf_r+0x2388>
    4890:	05000693          	li	a3,80
    4894:	04100893          	li	a7,65
    4898:	00100613          	li	a2,1
    489c:	ac0ff06f          	j	3b5c <_vfprintf_r+0x164c>
    48a0:	000a8693          	mv	a3,s5
    48a4:	00300613          	li	a2,3
    48a8:	c2dff06f          	j	44d4 <_vfprintf_r+0x1fc4>
    48ac:	01c12783          	lw	a5,28(sp)
    48b0:	00a7c583          	lbu	a1,10(a5)
    48b4:	fb5ff06f          	j	4868 <_vfprintf_r+0x2358>
    48b8:	0a714703          	lbu	a4,167(sp)
    48bc:	04c12c83          	lw	s9,76(sp)
    48c0:	00000a93          	li	s5,0
    48c4:	00070463          	beqz	a4,48cc <_vfprintf_r+0x23bc>
    48c8:	8f8fe06f          	j	29c0 <_vfprintf_r+0x4b0>
    48cc:	e69fd06f          	j	2734 <_vfprintf_r+0x224>
    48d0:	02012783          	lw	a5,32(sp)
    48d4:	01c12703          	lw	a4,28(sp)
    48d8:	1cf74863          	blt	a4,a5,4aa8 <_vfprintf_r+0x2598>
    48dc:	01c12783          	lw	a5,28(sp)
    48e0:	001cf713          	andi	a4,s9,1
    48e4:	00078b13          	mv	s6,a5
    48e8:	00070663          	beqz	a4,48f4 <_vfprintf_r+0x23e4>
    48ec:	02c12703          	lw	a4,44(sp)
    48f0:	00e78b33          	add	s6,a5,a4
    48f4:	400cfe13          	andi	t3,s9,1024
    48f8:	000e0663          	beqz	t3,4904 <_vfprintf_r+0x23f4>
    48fc:	01c12783          	lw	a5,28(sp)
    4900:	2ef04a63          	bgtz	a5,4bf4 <_vfprintf_r+0x26e4>
    4904:	fffb4693          	not	a3,s6
    4908:	41f6d693          	srai	a3,a3,0x1f
    490c:	00db7db3          	and	s11,s6,a3
    4910:	06700893          	li	a7,103
    4914:	02012423          	sw	zero,40(sp)
    4918:	02012223          	sw	zero,36(sp)
    491c:	b1cff06f          	j	3c38 <_vfprintf_r+0x1728>
    4920:	0c410613          	addi	a2,sp,196
    4924:	00048593          	mv	a1,s1
    4928:	00090513          	mv	a0,s2
    492c:	530000ef          	jal	4e5c <__sprint_r>
    4930:	00050463          	beqz	a0,4938 <_vfprintf_r+0x2428>
    4934:	a69fe06f          	j	339c <_vfprintf_r+0xe8c>
    4938:	000cc683          	lbu	a3,0(s9)
    493c:	0cc12603          	lw	a2,204(sp)
    4940:	00098593          	mv	a1,s3
    4944:	01000713          	li	a4,16
    4948:	00700813          	li	a6,7
    494c:	00dd0d33          	add	s10,s10,a3
    4950:	8b5ff06f          	j	4204 <_vfprintf_r+0x1cf4>
    4954:	00900513          	li	a0,9
    4958:	bf656c63          	bltu	a0,s6,3d50 <_vfprintf_r+0x1840>
    495c:	c74ff06f          	j	3dd0 <_vfprintf_r+0x18c0>
    4960:	fff00793          	li	a5,-1
    4964:	00f12623          	sw	a5,12(sp)
    4968:	f2dfd06f          	j	2894 <_vfprintf_r+0x384>
    496c:	02d00793          	li	a5,45
    4970:	0af103a3          	sb	a5,167(sp)
    4974:	02d00713          	li	a4,45
    4978:	d90ff06f          	j	3f08 <_vfprintf_r+0x19f8>
    497c:	0a714703          	lbu	a4,167(sp)
    4980:	01812a23          	sw	s8,20(sp)
    4984:	02012423          	sw	zero,40(sp)
    4988:	02012223          	sw	zero,36(sp)
    498c:	00012e23          	sw	zero,28(sp)
    4990:	000a8d93          	mv	s11,s5
    4994:	000a8b13          	mv	s6,s5
    4998:	00000a93          	li	s5,0
    499c:	00070463          	beqz	a4,49a4 <_vfprintf_r+0x2494>
    49a0:	820fe06f          	j	29c0 <_vfprintf_r+0x4b0>
    49a4:	d91fd06f          	j	2734 <_vfprintf_r+0x224>
    49a8:	00812503          	lw	a0,8(sp)
    49ac:	0c410613          	addi	a2,sp,196
    49b0:	00048593          	mv	a1,s1
    49b4:	4a8000ef          	jal	4e5c <__sprint_r>
    49b8:	00050463          	beqz	a0,49c0 <_vfprintf_r+0x24b0>
    49bc:	9e1fe06f          	j	339c <_vfprintf_r+0xe8c>
    49c0:	0ac12a83          	lw	s5,172(sp)
    49c4:	02012783          	lw	a5,32(sp)
    49c8:	0cc12603          	lw	a2,204(sp)
    49cc:	00098413          	mv	s0,s3
    49d0:	41578ab3          	sub	s5,a5,s5
    49d4:	ca9fe06f          	j	367c <_vfprintf_r+0x116c>
    49d8:	4ec18d13          	addi	s10,gp,1260 # 12dfc <keypad_map+0x13c>
    49dc:	d38ff06f          	j	3f14 <_vfprintf_r+0x1a04>
    49e0:	0ac12783          	lw	a5,172(sp)
    49e4:	00f12e23          	sw	a5,28(sp)
    49e8:	00070793          	mv	a5,a4
    49ec:	abdff06f          	j	44a8 <_vfprintf_r+0x1f98>
    49f0:	08010593          	addi	a1,sp,128
    49f4:	000b0513          	mv	a0,s6
    49f8:	04e12e23          	sw	a4,92(sp)
    49fc:	04c12c23          	sw	a2,88(sp)
    4a00:	05112a23          	sw	a7,84(sp)
    4a04:	04d12823          	sw	a3,80(sp)
    4a08:	09f12823          	sw	t6,144(sp)
    4a0c:	03f12423          	sw	t6,40(sp)
    4a10:	09e12a23          	sw	t5,148(sp)
    4a14:	03e12223          	sw	t5,36(sp)
    4a18:	09d12c23          	sw	t4,152(sp)
    4a1c:	03d12023          	sw	t4,32(sp)
    4a20:	00b12e23          	sw	a1,28(sp)
    4a24:	09812e23          	sw	s8,156(sp)
    4a28:	08012023          	sw	zero,128(sp)
    4a2c:	08012223          	sw	zero,132(sp)
    4a30:	08012423          	sw	zero,136(sp)
    4a34:	08012623          	sw	zero,140(sp)
    4a38:	6940a0ef          	jal	f0cc <__eqtf2>
    4a3c:	01c12583          	lw	a1,28(sp)
    4a40:	02012e83          	lw	t4,32(sp)
    4a44:	02412f03          	lw	t5,36(sp)
    4a48:	02812f83          	lw	t6,40(sp)
    4a4c:	05012683          	lw	a3,80(sp)
    4a50:	05412883          	lw	a7,84(sp)
    4a54:	05812603          	lw	a2,88(sp)
    4a58:	05c12703          	lw	a4,92(sp)
    4a5c:	26051c63          	bnez	a0,4cd4 <_vfprintf_r+0x27c4>
    4a60:	0ac12783          	lw	a5,172(sp)
    4a64:	00f70733          	add	a4,a4,a5
    4a68:	00f12e23          	sw	a5,28(sp)
    4a6c:	41a707b3          	sub	a5,a4,s10
    4a70:	02f12023          	sw	a5,32(sp)
    4a74:	01c12783          	lw	a5,28(sp)
    4a78:	001cf713          	andi	a4,s9,1
    4a7c:	01576733          	or	a4,a4,s5
    4a80:	26f05463          	blez	a5,4ce8 <_vfprintf_r+0x27d8>
    4a84:	22071863          	bnez	a4,4cb4 <_vfprintf_r+0x27a4>
    4a88:	01c12b03          	lw	s6,28(sp)
    4a8c:	06600893          	li	a7,102
    4a90:	400cfe13          	andi	t3,s9,1024
    4a94:	160e1263          	bnez	t3,4bf8 <_vfprintf_r+0x26e8>
    4a98:	fffb4693          	not	a3,s6
    4a9c:	41f6d693          	srai	a3,a3,0x1f
    4aa0:	00db7db3          	and	s11,s6,a3
    4aa4:	e71ff06f          	j	4914 <_vfprintf_r+0x2404>
    4aa8:	02012783          	lw	a5,32(sp)
    4aac:	02c12703          	lw	a4,44(sp)
    4ab0:	06700893          	li	a7,103
    4ab4:	00e78b33          	add	s6,a5,a4
    4ab8:	01c12783          	lw	a5,28(sp)
    4abc:	fcf04ae3          	bgtz	a5,4a90 <_vfprintf_r+0x2580>
    4ac0:	40fb0f33          	sub	t5,s6,a5
    4ac4:	001f0b13          	addi	s6,t5,1
    4ac8:	fffb4693          	not	a3,s6
    4acc:	41f6d693          	srai	a3,a3,0x1f
    4ad0:	00db7db3          	and	s11,s6,a3
    4ad4:	e41ff06f          	j	4914 <_vfprintf_r+0x2404>
    4ad8:	000c8e93          	mv	t4,s9
    4adc:	b94fe06f          	j	2e70 <_vfprintf_r+0x960>
    4ae0:	00013837          	lui	a6,0x13
    4ae4:	ff000593          	li	a1,-16
    4ae8:	40a00ab3          	neg	s5,a0
    4aec:	1a880813          	addi	a6,a6,424 # 131a8 <zeroes.0>
    4af0:	06b55863          	bge	a0,a1,4b60 <_vfprintf_r+0x2650>
    4af4:	01212e23          	sw	s2,28(sp)
    4af8:	01000b13          	li	s6,16
    4afc:	00700c13          	li	s8,7
    4b00:	00080913          	mv	s2,a6
    4b04:	00c0006f          	j	4b10 <_vfprintf_r+0x2600>
    4b08:	ff0a8a93          	addi	s5,s5,-16 # 3ffdfff0 <_memory_end+0x3ffbfff0>
    4b0c:	055b5663          	bge	s6,s5,4b58 <_vfprintf_r+0x2648>
    4b10:	01060613          	addi	a2,a2,16
    4b14:	00170713          	addi	a4,a4,1 # 3ffc0001 <_memory_end+0x3ffa0001>
    4b18:	01242023          	sw	s2,0(s0)
    4b1c:	01642223          	sw	s6,4(s0)
    4b20:	0cc12623          	sw	a2,204(sp)
    4b24:	0ce12423          	sw	a4,200(sp)
    4b28:	00840413          	addi	s0,s0,8
    4b2c:	fcec5ee3          	bge	s8,a4,4b08 <_vfprintf_r+0x25f8>
    4b30:	00812503          	lw	a0,8(sp)
    4b34:	0c410613          	addi	a2,sp,196
    4b38:	00048593          	mv	a1,s1
    4b3c:	320000ef          	jal	4e5c <__sprint_r>
    4b40:	00050463          	beqz	a0,4b48 <_vfprintf_r+0x2638>
    4b44:	859fe06f          	j	339c <_vfprintf_r+0xe8c>
    4b48:	0cc12603          	lw	a2,204(sp)
    4b4c:	0c812703          	lw	a4,200(sp)
    4b50:	00098413          	mv	s0,s3
    4b54:	fb5ff06f          	j	4b08 <_vfprintf_r+0x25f8>
    4b58:	00090813          	mv	a6,s2
    4b5c:	01c12903          	lw	s2,28(sp)
    4b60:	01560633          	add	a2,a2,s5
    4b64:	00170713          	addi	a4,a4,1
    4b68:	01042023          	sw	a6,0(s0)
    4b6c:	01542223          	sw	s5,4(s0)
    4b70:	0cc12623          	sw	a2,204(sp)
    4b74:	0ce12423          	sw	a4,200(sp)
    4b78:	00700593          	li	a1,7
    4b7c:	aee5d263          	bge	a1,a4,3e60 <_vfprintf_r+0x1950>
    4b80:	00812503          	lw	a0,8(sp)
    4b84:	0c410613          	addi	a2,sp,196
    4b88:	00048593          	mv	a1,s1
    4b8c:	2d0000ef          	jal	4e5c <__sprint_r>
    4b90:	00050463          	beqz	a0,4b98 <_vfprintf_r+0x2688>
    4b94:	809fe06f          	j	339c <_vfprintf_r+0xe8c>
    4b98:	0cc12603          	lw	a2,204(sp)
    4b9c:	0c812703          	lw	a4,200(sp)
    4ba0:	00098413          	mv	s0,s3
    4ba4:	be4ff06f          	j	3f88 <_vfprintf_r+0x1a78>
    4ba8:	0b610693          	addi	a3,sp,182
    4bac:	00061863          	bnez	a2,4bbc <_vfprintf_r+0x26ac>
    4bb0:	03000693          	li	a3,48
    4bb4:	0ad10b23          	sb	a3,182(sp)
    4bb8:	0b710693          	addi	a3,sp,183
    4bbc:	19010793          	addi	a5,sp,400
    4bc0:	40f68633          	sub	a2,a3,a5
    4bc4:	03070713          	addi	a4,a4,48
    4bc8:	0dd60793          	addi	a5,a2,221
    4bcc:	00e68023          	sb	a4,0(a3)
    4bd0:	04f12023          	sw	a5,64(sp)
    4bd4:	820ff06f          	j	3bf4 <_vfprintf_r+0x16e4>
    4bd8:	00012823          	sw	zero,16(sp)
    4bdc:	00600a93          	li	s5,6
    4be0:	f3dfd06f          	j	2b1c <_vfprintf_r+0x60c>
    4be4:	001cf713          	andi	a4,s9,1
    4be8:	00071463          	bnez	a4,4bf0 <_vfprintf_r+0x26e0>
    4bec:	828ff06f          	j	3c14 <_vfprintf_r+0x1704>
    4bf0:	81cff06f          	j	3c0c <_vfprintf_r+0x16fc>
    4bf4:	06700893          	li	a7,103
    4bf8:	03c12603          	lw	a2,60(sp)
    4bfc:	0ff00693          	li	a3,255
    4c00:	00064703          	lbu	a4,0(a2)
    4c04:	14d70463          	beq	a4,a3,4d4c <_vfprintf_r+0x283c>
    4c08:	01c12783          	lw	a5,28(sp)
    4c0c:	00000513          	li	a0,0
    4c10:	00000593          	li	a1,0
    4c14:	00f75e63          	bge	a4,a5,4c30 <_vfprintf_r+0x2720>
    4c18:	40e787b3          	sub	a5,a5,a4
    4c1c:	00164703          	lbu	a4,1(a2)
    4c20:	04070463          	beqz	a4,4c68 <_vfprintf_r+0x2758>
    4c24:	00158593          	addi	a1,a1,1
    4c28:	00160613          	addi	a2,a2,1
    4c2c:	fed714e3          	bne	a4,a3,4c14 <_vfprintf_r+0x2704>
    4c30:	02c12e23          	sw	a2,60(sp)
    4c34:	02b12223          	sw	a1,36(sp)
    4c38:	02a12423          	sw	a0,40(sp)
    4c3c:	00f12e23          	sw	a5,28(sp)
    4c40:	02812783          	lw	a5,40(sp)
    4c44:	02412703          	lw	a4,36(sp)
    4c48:	00e78733          	add	a4,a5,a4
    4c4c:	04812783          	lw	a5,72(sp)
    4c50:	02f70733          	mul	a4,a4,a5
    4c54:	01670b33          	add	s6,a4,s6
    4c58:	fffb4693          	not	a3,s6
    4c5c:	41f6d693          	srai	a3,a3,0x1f
    4c60:	00db7db3          	and	s11,s6,a3
    4c64:	fd5fe06f          	j	3c38 <_vfprintf_r+0x1728>
    4c68:	00064703          	lbu	a4,0(a2)
    4c6c:	00150513          	addi	a0,a0,1
    4c70:	fbdff06f          	j	4c2c <_vfprintf_r+0x271c>
    4c74:	00090c13          	mv	s8,s2
    4c78:	001a8693          	addi	a3,s5,1
    4c7c:	02412883          	lw	a7,36(sp)
    4c80:	02812c83          	lw	s9,40(sp)
    4c84:	04012b83          	lw	s7,64(sp)
    4c88:	04c12403          	lw	s0,76(sp)
    4c8c:	02012903          	lw	s2,32(sp)
    4c90:	05012483          	lw	s1,80(sp)
    4c94:	05412d03          	lw	s10,84(sp)
    4c98:	00dc06b3          	add	a3,s8,a3
    4c9c:	03000613          	li	a2,48
    4ca0:	bc0ac6e3          	bltz	s5,486c <_vfprintf_r+0x235c>
    4ca4:	001c0c13          	addi	s8,s8,1
    4ca8:	fecc0fa3          	sb	a2,-1(s8)
    4cac:	fedc1ce3          	bne	s8,a3,4ca4 <_vfprintf_r+0x2794>
    4cb0:	bbdff06f          	j	486c <_vfprintf_r+0x235c>
    4cb4:	02c12703          	lw	a4,44(sp)
    4cb8:	06600893          	li	a7,102
    4cbc:	00ea8f33          	add	t5,s5,a4
    4cc0:	00ff0b33          	add	s6,t5,a5
    4cc4:	dcdff06f          	j	4a90 <_vfprintf_r+0x2580>
    4cc8:	4f018793          	addi	a5,gp,1264 # 12e00 <keypad_map+0x140>
    4ccc:	00f12e23          	sw	a5,28(sp)
    4cd0:	965ff06f          	j	4634 <_vfprintf_r+0x2124>
    4cd4:	00100513          	li	a0,1
    4cd8:	40d506b3          	sub	a3,a0,a3
    4cdc:	0ad12623          	sw	a3,172(sp)
    4ce0:	00d70733          	add	a4,a4,a3
    4ce4:	f58ff06f          	j	443c <_vfprintf_r+0x1f2c>
    4ce8:	00071a63          	bnez	a4,4cfc <_vfprintf_r+0x27ec>
    4cec:	00100d93          	li	s11,1
    4cf0:	06600893          	li	a7,102
    4cf4:	00100b13          	li	s6,1
    4cf8:	c1dff06f          	j	4914 <_vfprintf_r+0x2404>
    4cfc:	02c12783          	lw	a5,44(sp)
    4d00:	06600893          	li	a7,102
    4d04:	00178f13          	addi	t5,a5,1
    4d08:	015f0b33          	add	s6,t5,s5
    4d0c:	fffb4693          	not	a3,s6
    4d10:	41f6d693          	srai	a3,a3,0x1f
    4d14:	00db7db3          	and	s11,s6,a3
    4d18:	bfdff06f          	j	4914 <_vfprintf_r+0x2404>
    4d1c:	00200793          	li	a5,2
    4d20:	04f12023          	sw	a5,64(sp)
    4d24:	ed1fe06f          	j	3bf4 <_vfprintf_r+0x16e4>
    4d28:	01412783          	lw	a5,20(sp)
    4d2c:	0007aa83          	lw	s5,0(a5)
    4d30:	00478793          	addi	a5,a5,4
    4d34:	000ad463          	bgez	s5,4d3c <_vfprintf_r+0x282c>
    4d38:	fff00a93          	li	s5,-1
    4d3c:	00194883          	lbu	a7,1(s2)
    4d40:	00f12a23          	sw	a5,20(sp)
    4d44:	00068913          	mv	s2,a3
    4d48:	96dfd06f          	j	26b4 <_vfprintf_r+0x1a4>
    4d4c:	02012423          	sw	zero,40(sp)
    4d50:	02012223          	sw	zero,36(sp)
    4d54:	eedff06f          	j	4c40 <_vfprintf_r+0x2730>
    4d58:	04500613          	li	a2,69
    4d5c:	08010593          	addi	a1,sp,128
    4d60:	edcff06f          	j	443c <_vfprintf_r+0x1f2c>
    4d64:	00c4d783          	lhu	a5,12(s1)
    4d68:	0407e793          	ori	a5,a5,64
    4d6c:	00f49623          	sh	a5,12(s1)
    4d70:	af1fd06f          	j	2860 <_vfprintf_r+0x350>

00004d74 <vfprintf>:
    4d74:	00014737          	lui	a4,0x14
    4d78:	00050793          	mv	a5,a0
    4d7c:	e3472503          	lw	a0,-460(a4) # 13e34 <_impure_ptr>
    4d80:	00060693          	mv	a3,a2
    4d84:	00058613          	mv	a2,a1
    4d88:	00078593          	mv	a1,a5
    4d8c:	f84fd06f          	j	2510 <_vfprintf_r>

00004d90 <__sbprintf>:
    4d90:	b8010113          	addi	sp,sp,-1152
    4d94:	00c59783          	lh	a5,12(a1)
    4d98:	00e5d703          	lhu	a4,14(a1)
    4d9c:	46812c23          	sw	s0,1144(sp)
    4da0:	00058413          	mv	s0,a1
    4da4:	000105b7          	lui	a1,0x10
    4da8:	ffd58593          	addi	a1,a1,-3 # fffd <__multf3+0xc05>
    4dac:	06442e03          	lw	t3,100(s0)
    4db0:	01c42303          	lw	t1,28(s0)
    4db4:	02442883          	lw	a7,36(s0)
    4db8:	01071713          	slli	a4,a4,0x10
    4dbc:	00b7f7b3          	and	a5,a5,a1
    4dc0:	00e7e7b3          	or	a5,a5,a4
    4dc4:	40000813          	li	a6,1024
    4dc8:	00f12a23          	sw	a5,20(sp)
    4dcc:	00810593          	addi	a1,sp,8
    4dd0:	07010793          	addi	a5,sp,112
    4dd4:	46912a23          	sw	s1,1140(sp)
    4dd8:	47212823          	sw	s2,1136(sp)
    4ddc:	46112e23          	sw	ra,1148(sp)
    4de0:	00050913          	mv	s2,a0
    4de4:	07c12623          	sw	t3,108(sp)
    4de8:	02612223          	sw	t1,36(sp)
    4dec:	03112623          	sw	a7,44(sp)
    4df0:	00f12423          	sw	a5,8(sp)
    4df4:	00f12c23          	sw	a5,24(sp)
    4df8:	01012823          	sw	a6,16(sp)
    4dfc:	01012e23          	sw	a6,28(sp)
    4e00:	02012023          	sw	zero,32(sp)
    4e04:	f0cfd0ef          	jal	2510 <_vfprintf_r>
    4e08:	00050493          	mv	s1,a0
    4e0c:	02055c63          	bgez	a0,4e44 <__sbprintf+0xb4>
    4e10:	01415783          	lhu	a5,20(sp)
    4e14:	0407f793          	andi	a5,a5,64
    4e18:	00078863          	beqz	a5,4e28 <__sbprintf+0x98>
    4e1c:	00c45783          	lhu	a5,12(s0)
    4e20:	0407e793          	ori	a5,a5,64
    4e24:	00f41623          	sh	a5,12(s0)
    4e28:	47c12083          	lw	ra,1148(sp)
    4e2c:	47812403          	lw	s0,1144(sp)
    4e30:	47012903          	lw	s2,1136(sp)
    4e34:	00048513          	mv	a0,s1
    4e38:	47412483          	lw	s1,1140(sp)
    4e3c:	48010113          	addi	sp,sp,1152
    4e40:	00008067          	ret
    4e44:	00810593          	addi	a1,sp,8
    4e48:	00090513          	mv	a0,s2
    4e4c:	2a8000ef          	jal	50f4 <_fflush_r>
    4e50:	fc0500e3          	beqz	a0,4e10 <__sbprintf+0x80>
    4e54:	fff00493          	li	s1,-1
    4e58:	fb9ff06f          	j	4e10 <__sbprintf+0x80>

00004e5c <__sprint_r>:
    4e5c:	00862783          	lw	a5,8(a2)
    4e60:	ff010113          	addi	sp,sp,-16
    4e64:	00812423          	sw	s0,8(sp)
    4e68:	00112623          	sw	ra,12(sp)
    4e6c:	00060413          	mv	s0,a2
    4e70:	00079e63          	bnez	a5,4e8c <__sprint_r+0x30>
    4e74:	00c12083          	lw	ra,12(sp)
    4e78:	00042223          	sw	zero,4(s0)
    4e7c:	00812403          	lw	s0,8(sp)
    4e80:	00000513          	li	a0,0
    4e84:	01010113          	addi	sp,sp,16
    4e88:	00008067          	ret
    4e8c:	6e8000ef          	jal	5574 <__sfvwrite_r>
    4e90:	00c12083          	lw	ra,12(sp)
    4e94:	00042423          	sw	zero,8(s0)
    4e98:	00042223          	sw	zero,4(s0)
    4e9c:	00812403          	lw	s0,8(sp)
    4ea0:	01010113          	addi	sp,sp,16
    4ea4:	00008067          	ret

00004ea8 <__sflush_r>:
    4ea8:	00c59703          	lh	a4,12(a1)
    4eac:	fe010113          	addi	sp,sp,-32
    4eb0:	00812c23          	sw	s0,24(sp)
    4eb4:	01312623          	sw	s3,12(sp)
    4eb8:	00112e23          	sw	ra,28(sp)
    4ebc:	00877793          	andi	a5,a4,8
    4ec0:	00058413          	mv	s0,a1
    4ec4:	00050993          	mv	s3,a0
    4ec8:	12079063          	bnez	a5,4fe8 <__sflush_r+0x140>
    4ecc:	000017b7          	lui	a5,0x1
    4ed0:	80078793          	addi	a5,a5,-2048 # 800 <main+0x514>
    4ed4:	0045a683          	lw	a3,4(a1)
    4ed8:	00f767b3          	or	a5,a4,a5
    4edc:	00f59623          	sh	a5,12(a1)
    4ee0:	18d05263          	blez	a3,5064 <__sflush_r+0x1bc>
    4ee4:	02842803          	lw	a6,40(s0)
    4ee8:	0e080463          	beqz	a6,4fd0 <__sflush_r+0x128>
    4eec:	00912a23          	sw	s1,20(sp)
    4ef0:	01371693          	slli	a3,a4,0x13
    4ef4:	0009a483          	lw	s1,0(s3)
    4ef8:	0009a023          	sw	zero,0(s3)
    4efc:	01c42583          	lw	a1,28(s0)
    4f00:	1606ce63          	bltz	a3,507c <__sflush_r+0x1d4>
    4f04:	00000613          	li	a2,0
    4f08:	00100693          	li	a3,1
    4f0c:	00098513          	mv	a0,s3
    4f10:	000800e7          	jalr	a6
    4f14:	fff00793          	li	a5,-1
    4f18:	00050613          	mv	a2,a0
    4f1c:	1af50463          	beq	a0,a5,50c4 <__sflush_r+0x21c>
    4f20:	00c41783          	lh	a5,12(s0)
    4f24:	02842803          	lw	a6,40(s0)
    4f28:	01c42583          	lw	a1,28(s0)
    4f2c:	0047f793          	andi	a5,a5,4
    4f30:	00078e63          	beqz	a5,4f4c <__sflush_r+0xa4>
    4f34:	00442703          	lw	a4,4(s0)
    4f38:	03042783          	lw	a5,48(s0)
    4f3c:	40e60633          	sub	a2,a2,a4
    4f40:	00078663          	beqz	a5,4f4c <__sflush_r+0xa4>
    4f44:	03c42783          	lw	a5,60(s0)
    4f48:	40f60633          	sub	a2,a2,a5
    4f4c:	00000693          	li	a3,0
    4f50:	00098513          	mv	a0,s3
    4f54:	000800e7          	jalr	a6
    4f58:	fff00793          	li	a5,-1
    4f5c:	12f51463          	bne	a0,a5,5084 <__sflush_r+0x1dc>
    4f60:	0009a683          	lw	a3,0(s3)
    4f64:	01d00793          	li	a5,29
    4f68:	00c41703          	lh	a4,12(s0)
    4f6c:	16d7ea63          	bltu	a5,a3,50e0 <__sflush_r+0x238>
    4f70:	204007b7          	lui	a5,0x20400
    4f74:	00178793          	addi	a5,a5,1 # 20400001 <_memory_end+0x203e0001>
    4f78:	00d7d7b3          	srl	a5,a5,a3
    4f7c:	0017f793          	andi	a5,a5,1
    4f80:	16078063          	beqz	a5,50e0 <__sflush_r+0x238>
    4f84:	01042603          	lw	a2,16(s0)
    4f88:	fffff7b7          	lui	a5,0xfffff
    4f8c:	7ff78793          	addi	a5,a5,2047 # fffff7ff <_memory_end+0xfffdf7ff>
    4f90:	00f777b3          	and	a5,a4,a5
    4f94:	00f41623          	sh	a5,12(s0)
    4f98:	00042223          	sw	zero,4(s0)
    4f9c:	00c42023          	sw	a2,0(s0)
    4fa0:	01371793          	slli	a5,a4,0x13
    4fa4:	0007d463          	bgez	a5,4fac <__sflush_r+0x104>
    4fa8:	10068263          	beqz	a3,50ac <__sflush_r+0x204>
    4fac:	03042583          	lw	a1,48(s0)
    4fb0:	0099a023          	sw	s1,0(s3)
    4fb4:	10058463          	beqz	a1,50bc <__sflush_r+0x214>
    4fb8:	04040793          	addi	a5,s0,64
    4fbc:	00f58663          	beq	a1,a5,4fc8 <__sflush_r+0x120>
    4fc0:	00098513          	mv	a0,s3
    4fc4:	121010ef          	jal	68e4 <_free_r>
    4fc8:	01412483          	lw	s1,20(sp)
    4fcc:	02042823          	sw	zero,48(s0)
    4fd0:	00000513          	li	a0,0
    4fd4:	01c12083          	lw	ra,28(sp)
    4fd8:	01812403          	lw	s0,24(sp)
    4fdc:	00c12983          	lw	s3,12(sp)
    4fe0:	02010113          	addi	sp,sp,32
    4fe4:	00008067          	ret
    4fe8:	01212823          	sw	s2,16(sp)
    4fec:	0105a903          	lw	s2,16(a1)
    4ff0:	08090263          	beqz	s2,5074 <__sflush_r+0x1cc>
    4ff4:	00912a23          	sw	s1,20(sp)
    4ff8:	0005a483          	lw	s1,0(a1)
    4ffc:	00377713          	andi	a4,a4,3
    5000:	0125a023          	sw	s2,0(a1)
    5004:	412484b3          	sub	s1,s1,s2
    5008:	00000793          	li	a5,0
    500c:	00071463          	bnez	a4,5014 <__sflush_r+0x16c>
    5010:	0145a783          	lw	a5,20(a1)
    5014:	00f42423          	sw	a5,8(s0)
    5018:	00904863          	bgtz	s1,5028 <__sflush_r+0x180>
    501c:	0540006f          	j	5070 <__sflush_r+0x1c8>
    5020:	00a90933          	add	s2,s2,a0
    5024:	04905663          	blez	s1,5070 <__sflush_r+0x1c8>
    5028:	02442783          	lw	a5,36(s0)
    502c:	01c42583          	lw	a1,28(s0)
    5030:	00048693          	mv	a3,s1
    5034:	00090613          	mv	a2,s2
    5038:	00098513          	mv	a0,s3
    503c:	000780e7          	jalr	a5
    5040:	40a484b3          	sub	s1,s1,a0
    5044:	fca04ee3          	bgtz	a0,5020 <__sflush_r+0x178>
    5048:	00c41703          	lh	a4,12(s0)
    504c:	01012903          	lw	s2,16(sp)
    5050:	04076713          	ori	a4,a4,64
    5054:	01412483          	lw	s1,20(sp)
    5058:	00e41623          	sh	a4,12(s0)
    505c:	fff00513          	li	a0,-1
    5060:	f75ff06f          	j	4fd4 <__sflush_r+0x12c>
    5064:	03c5a683          	lw	a3,60(a1)
    5068:	e6d04ee3          	bgtz	a3,4ee4 <__sflush_r+0x3c>
    506c:	f65ff06f          	j	4fd0 <__sflush_r+0x128>
    5070:	01412483          	lw	s1,20(sp)
    5074:	01012903          	lw	s2,16(sp)
    5078:	f59ff06f          	j	4fd0 <__sflush_r+0x128>
    507c:	05042603          	lw	a2,80(s0)
    5080:	eadff06f          	j	4f2c <__sflush_r+0x84>
    5084:	00c41703          	lh	a4,12(s0)
    5088:	01042683          	lw	a3,16(s0)
    508c:	fffff7b7          	lui	a5,0xfffff
    5090:	7ff78793          	addi	a5,a5,2047 # fffff7ff <_memory_end+0xfffdf7ff>
    5094:	00f777b3          	and	a5,a4,a5
    5098:	00f41623          	sh	a5,12(s0)
    509c:	00042223          	sw	zero,4(s0)
    50a0:	00d42023          	sw	a3,0(s0)
    50a4:	01371793          	slli	a5,a4,0x13
    50a8:	f007d2e3          	bgez	a5,4fac <__sflush_r+0x104>
    50ac:	03042583          	lw	a1,48(s0)
    50b0:	04a42823          	sw	a0,80(s0)
    50b4:	0099a023          	sw	s1,0(s3)
    50b8:	f00590e3          	bnez	a1,4fb8 <__sflush_r+0x110>
    50bc:	01412483          	lw	s1,20(sp)
    50c0:	f11ff06f          	j	4fd0 <__sflush_r+0x128>
    50c4:	0009a783          	lw	a5,0(s3)
    50c8:	e4078ce3          	beqz	a5,4f20 <__sflush_r+0x78>
    50cc:	01d00713          	li	a4,29
    50d0:	00e78c63          	beq	a5,a4,50e8 <__sflush_r+0x240>
    50d4:	01600713          	li	a4,22
    50d8:	00e78863          	beq	a5,a4,50e8 <__sflush_r+0x240>
    50dc:	00c41703          	lh	a4,12(s0)
    50e0:	04076713          	ori	a4,a4,64
    50e4:	f71ff06f          	j	5054 <__sflush_r+0x1ac>
    50e8:	0099a023          	sw	s1,0(s3)
    50ec:	01412483          	lw	s1,20(sp)
    50f0:	ee1ff06f          	j	4fd0 <__sflush_r+0x128>

000050f4 <_fflush_r>:
    50f4:	fe010113          	addi	sp,sp,-32
    50f8:	00812c23          	sw	s0,24(sp)
    50fc:	00112e23          	sw	ra,28(sp)
    5100:	00050413          	mv	s0,a0
    5104:	00050663          	beqz	a0,5110 <_fflush_r+0x1c>
    5108:	03452783          	lw	a5,52(a0)
    510c:	02078a63          	beqz	a5,5140 <_fflush_r+0x4c>
    5110:	00c59783          	lh	a5,12(a1)
    5114:	00079c63          	bnez	a5,512c <_fflush_r+0x38>
    5118:	01c12083          	lw	ra,28(sp)
    511c:	01812403          	lw	s0,24(sp)
    5120:	00000513          	li	a0,0
    5124:	02010113          	addi	sp,sp,32
    5128:	00008067          	ret
    512c:	00040513          	mv	a0,s0
    5130:	01812403          	lw	s0,24(sp)
    5134:	01c12083          	lw	ra,28(sp)
    5138:	02010113          	addi	sp,sp,32
    513c:	d6dff06f          	j	4ea8 <__sflush_r>
    5140:	00b12623          	sw	a1,12(sp)
    5144:	3d0000ef          	jal	5514 <__sinit>
    5148:	00c12583          	lw	a1,12(sp)
    514c:	fc5ff06f          	j	5110 <_fflush_r+0x1c>

00005150 <fflush>:
    5150:	06050263          	beqz	a0,51b4 <fflush+0x64>
    5154:	000147b7          	lui	a5,0x14
    5158:	00050593          	mv	a1,a0
    515c:	e347a503          	lw	a0,-460(a5) # 13e34 <_impure_ptr>
    5160:	00050663          	beqz	a0,516c <fflush+0x1c>
    5164:	03452783          	lw	a5,52(a0)
    5168:	00078c63          	beqz	a5,5180 <fflush+0x30>
    516c:	00c59783          	lh	a5,12(a1)
    5170:	00079663          	bnez	a5,517c <fflush+0x2c>
    5174:	00000513          	li	a0,0
    5178:	00008067          	ret
    517c:	d2dff06f          	j	4ea8 <__sflush_r>
    5180:	fe010113          	addi	sp,sp,-32
    5184:	00b12623          	sw	a1,12(sp)
    5188:	00a12423          	sw	a0,8(sp)
    518c:	00112e23          	sw	ra,28(sp)
    5190:	384000ef          	jal	5514 <__sinit>
    5194:	00c12583          	lw	a1,12(sp)
    5198:	00812503          	lw	a0,8(sp)
    519c:	00c59783          	lh	a5,12(a1)
    51a0:	02079863          	bnez	a5,51d0 <fflush+0x80>
    51a4:	01c12083          	lw	ra,28(sp)
    51a8:	00000513          	li	a0,0
    51ac:	02010113          	addi	sp,sp,32
    51b0:	00008067          	ret
    51b4:	00014637          	lui	a2,0x14
    51b8:	000055b7          	lui	a1,0x5
    51bc:	00013537          	lui	a0,0x13
    51c0:	86060613          	addi	a2,a2,-1952 # 13860 <__sglue>
    51c4:	0f458593          	addi	a1,a1,244 # 50f4 <_fflush_r>
    51c8:	74050513          	addi	a0,a0,1856 # 13740 <_impure_data>
    51cc:	0b90006f          	j	5a84 <_fwalk_sglue>
    51d0:	01c12083          	lw	ra,28(sp)
    51d4:	02010113          	addi	sp,sp,32
    51d8:	cd1ff06f          	j	4ea8 <__sflush_r>

000051dc <__fp_lock>:
    51dc:	00000513          	li	a0,0
    51e0:	00008067          	ret

000051e4 <stdio_exit_handler>:
    51e4:	00014637          	lui	a2,0x14
    51e8:	0000b5b7          	lui	a1,0xb
    51ec:	00013537          	lui	a0,0x13
    51f0:	86060613          	addi	a2,a2,-1952 # 13860 <__sglue>
    51f4:	f1c58593          	addi	a1,a1,-228 # af1c <_fclose_r>
    51f8:	74050513          	addi	a0,a0,1856 # 13740 <_impure_data>
    51fc:	0890006f          	j	5a84 <_fwalk_sglue>

00005200 <cleanup_stdio>:
    5200:	00452583          	lw	a1,4(a0)
    5204:	ff010113          	addi	sp,sp,-16
    5208:	000147b7          	lui	a5,0x14
    520c:	00812423          	sw	s0,8(sp)
    5210:	00112623          	sw	ra,12(sp)
    5214:	e6478793          	addi	a5,a5,-412 # 13e64 <__sf>
    5218:	00050413          	mv	s0,a0
    521c:	00f58463          	beq	a1,a5,5224 <cleanup_stdio+0x24>
    5220:	4fd050ef          	jal	af1c <_fclose_r>
    5224:	00842583          	lw	a1,8(s0)
    5228:	000147b7          	lui	a5,0x14
    522c:	ecc78793          	addi	a5,a5,-308 # 13ecc <__sf+0x68>
    5230:	00f58663          	beq	a1,a5,523c <cleanup_stdio+0x3c>
    5234:	00040513          	mv	a0,s0
    5238:	4e5050ef          	jal	af1c <_fclose_r>
    523c:	00c42583          	lw	a1,12(s0)
    5240:	000147b7          	lui	a5,0x14
    5244:	f3478793          	addi	a5,a5,-204 # 13f34 <__sf+0xd0>
    5248:	00f58c63          	beq	a1,a5,5260 <cleanup_stdio+0x60>
    524c:	00040513          	mv	a0,s0
    5250:	00812403          	lw	s0,8(sp)
    5254:	00c12083          	lw	ra,12(sp)
    5258:	01010113          	addi	sp,sp,16
    525c:	4c10506f          	j	af1c <_fclose_r>
    5260:	00c12083          	lw	ra,12(sp)
    5264:	00812403          	lw	s0,8(sp)
    5268:	01010113          	addi	sp,sp,16
    526c:	00008067          	ret

00005270 <__fp_unlock>:
    5270:	00000513          	li	a0,0
    5274:	00008067          	ret

00005278 <global_stdio_init.part.0>:
    5278:	fe010113          	addi	sp,sp,-32
    527c:	000057b7          	lui	a5,0x5
    5280:	00812c23          	sw	s0,24(sp)
    5284:	00014737          	lui	a4,0x14
    5288:	1e478793          	addi	a5,a5,484 # 51e4 <stdio_exit_handler>
    528c:	00014437          	lui	s0,0x14
    5290:	00014537          	lui	a0,0x14
    5294:	e6440413          	addi	s0,s0,-412 # 13e64 <__sf>
    5298:	00112e23          	sw	ra,28(sp)
    529c:	00912a23          	sw	s1,20(sp)
    52a0:	01212823          	sw	s2,16(sp)
    52a4:	01312623          	sw	s3,12(sp)
    52a8:	01412423          	sw	s4,8(sp)
    52ac:	fcf72223          	sw	a5,-60(a4) # 13fc4 <__stdio_exit_handler>
    52b0:	00800613          	li	a2,8
    52b4:	00400793          	li	a5,4
    52b8:	00000593          	li	a1,0
    52bc:	ec050513          	addi	a0,a0,-320 # 13ec0 <__sf+0x5c>
    52c0:	00f42623          	sw	a5,12(s0)
    52c4:	00042023          	sw	zero,0(s0)
    52c8:	00042223          	sw	zero,4(s0)
    52cc:	00042423          	sw	zero,8(s0)
    52d0:	06042223          	sw	zero,100(s0)
    52d4:	00042823          	sw	zero,16(s0)
    52d8:	00042a23          	sw	zero,20(s0)
    52dc:	00042c23          	sw	zero,24(s0)
    52e0:	030010ef          	jal	6310 <memset>
    52e4:	000107b7          	lui	a5,0x10
    52e8:	00006a37          	lui	s4,0x6
    52ec:	000069b7          	lui	s3,0x6
    52f0:	00006937          	lui	s2,0x6
    52f4:	000064b7          	lui	s1,0x6
    52f8:	00014537          	lui	a0,0x14
    52fc:	b38a0a13          	addi	s4,s4,-1224 # 5b38 <__sread>
    5300:	b9c98993          	addi	s3,s3,-1124 # 5b9c <__swrite>
    5304:	c2490913          	addi	s2,s2,-988 # 5c24 <__sseek>
    5308:	c9c48493          	addi	s1,s1,-868 # 5c9c <__sclose>
    530c:	00978793          	addi	a5,a5,9 # 10009 <__multf3+0xc11>
    5310:	00800613          	li	a2,8
    5314:	00000593          	li	a1,0
    5318:	f2850513          	addi	a0,a0,-216 # 13f28 <__sf+0xc4>
    531c:	03442023          	sw	s4,32(s0)
    5320:	03342223          	sw	s3,36(s0)
    5324:	03242423          	sw	s2,40(s0)
    5328:	02942623          	sw	s1,44(s0)
    532c:	06f42a23          	sw	a5,116(s0)
    5330:	00842e23          	sw	s0,28(s0)
    5334:	06042423          	sw	zero,104(s0)
    5338:	06042623          	sw	zero,108(s0)
    533c:	06042823          	sw	zero,112(s0)
    5340:	0c042623          	sw	zero,204(s0)
    5344:	06042c23          	sw	zero,120(s0)
    5348:	06042e23          	sw	zero,124(s0)
    534c:	08042023          	sw	zero,128(s0)
    5350:	7c1000ef          	jal	6310 <memset>
    5354:	000207b7          	lui	a5,0x20
    5358:	00014537          	lui	a0,0x14
    535c:	00014737          	lui	a4,0x14
    5360:	01278793          	addi	a5,a5,18 # 20012 <_memory_end+0x12>
    5364:	ecc70713          	addi	a4,a4,-308 # 13ecc <__sf+0x68>
    5368:	00800613          	li	a2,8
    536c:	00000593          	li	a1,0
    5370:	f9050513          	addi	a0,a0,-112 # 13f90 <__sf+0x12c>
    5374:	09442423          	sw	s4,136(s0)
    5378:	09342623          	sw	s3,140(s0)
    537c:	09242823          	sw	s2,144(s0)
    5380:	08942a23          	sw	s1,148(s0)
    5384:	0cf42e23          	sw	a5,220(s0)
    5388:	08e42223          	sw	a4,132(s0)
    538c:	0c042823          	sw	zero,208(s0)
    5390:	0c042a23          	sw	zero,212(s0)
    5394:	0c042c23          	sw	zero,216(s0)
    5398:	12042a23          	sw	zero,308(s0)
    539c:	0e042023          	sw	zero,224(s0)
    53a0:	0e042223          	sw	zero,228(s0)
    53a4:	0e042423          	sw	zero,232(s0)
    53a8:	769000ef          	jal	6310 <memset>
    53ac:	000147b7          	lui	a5,0x14
    53b0:	f3478793          	addi	a5,a5,-204 # 13f34 <__sf+0xd0>
    53b4:	0f442823          	sw	s4,240(s0)
    53b8:	0f342a23          	sw	s3,244(s0)
    53bc:	0f242c23          	sw	s2,248(s0)
    53c0:	0e942e23          	sw	s1,252(s0)
    53c4:	01c12083          	lw	ra,28(sp)
    53c8:	0ef42623          	sw	a5,236(s0)
    53cc:	01812403          	lw	s0,24(sp)
    53d0:	01412483          	lw	s1,20(sp)
    53d4:	01012903          	lw	s2,16(sp)
    53d8:	00c12983          	lw	s3,12(sp)
    53dc:	00812a03          	lw	s4,8(sp)
    53e0:	02010113          	addi	sp,sp,32
    53e4:	00008067          	ret

000053e8 <__sfp>:
    53e8:	000147b7          	lui	a5,0x14
    53ec:	fc47a783          	lw	a5,-60(a5) # 13fc4 <__stdio_exit_handler>
    53f0:	fe010113          	addi	sp,sp,-32
    53f4:	01312623          	sw	s3,12(sp)
    53f8:	00112e23          	sw	ra,28(sp)
    53fc:	00812c23          	sw	s0,24(sp)
    5400:	00912a23          	sw	s1,20(sp)
    5404:	01212823          	sw	s2,16(sp)
    5408:	00050993          	mv	s3,a0
    540c:	0e078863          	beqz	a5,54fc <__sfp+0x114>
    5410:	00014937          	lui	s2,0x14
    5414:	86090913          	addi	s2,s2,-1952 # 13860 <__sglue>
    5418:	fff00493          	li	s1,-1
    541c:	00492783          	lw	a5,4(s2)
    5420:	00892403          	lw	s0,8(s2)
    5424:	fff78793          	addi	a5,a5,-1
    5428:	0007d863          	bgez	a5,5438 <__sfp+0x50>
    542c:	0800006f          	j	54ac <__sfp+0xc4>
    5430:	06840413          	addi	s0,s0,104
    5434:	06978c63          	beq	a5,s1,54ac <__sfp+0xc4>
    5438:	00c41703          	lh	a4,12(s0)
    543c:	fff78793          	addi	a5,a5,-1
    5440:	fe0718e3          	bnez	a4,5430 <__sfp+0x48>
    5444:	ffff07b7          	lui	a5,0xffff0
    5448:	00178793          	addi	a5,a5,1 # ffff0001 <_memory_end+0xfffd0001>
    544c:	00f42623          	sw	a5,12(s0)
    5450:	06042223          	sw	zero,100(s0)
    5454:	00042023          	sw	zero,0(s0)
    5458:	00042423          	sw	zero,8(s0)
    545c:	00042223          	sw	zero,4(s0)
    5460:	00042823          	sw	zero,16(s0)
    5464:	00042a23          	sw	zero,20(s0)
    5468:	00042c23          	sw	zero,24(s0)
    546c:	00800613          	li	a2,8
    5470:	00000593          	li	a1,0
    5474:	05c40513          	addi	a0,s0,92
    5478:	699000ef          	jal	6310 <memset>
    547c:	02042823          	sw	zero,48(s0)
    5480:	02042a23          	sw	zero,52(s0)
    5484:	04042223          	sw	zero,68(s0)
    5488:	04042423          	sw	zero,72(s0)
    548c:	01c12083          	lw	ra,28(sp)
    5490:	00040513          	mv	a0,s0
    5494:	01812403          	lw	s0,24(sp)
    5498:	01412483          	lw	s1,20(sp)
    549c:	01012903          	lw	s2,16(sp)
    54a0:	00c12983          	lw	s3,12(sp)
    54a4:	02010113          	addi	sp,sp,32
    54a8:	00008067          	ret
    54ac:	00092403          	lw	s0,0(s2)
    54b0:	00040663          	beqz	s0,54bc <__sfp+0xd4>
    54b4:	00040913          	mv	s2,s0
    54b8:	f65ff06f          	j	541c <__sfp+0x34>
    54bc:	1ac00593          	li	a1,428
    54c0:	00098513          	mv	a0,s3
    54c4:	339030ef          	jal	8ffc <_malloc_r>
    54c8:	00050413          	mv	s0,a0
    54cc:	02050c63          	beqz	a0,5504 <__sfp+0x11c>
    54d0:	00c50513          	addi	a0,a0,12
    54d4:	00400793          	li	a5,4
    54d8:	00042023          	sw	zero,0(s0)
    54dc:	00f42223          	sw	a5,4(s0)
    54e0:	00a42423          	sw	a0,8(s0)
    54e4:	1a000613          	li	a2,416
    54e8:	00000593          	li	a1,0
    54ec:	625000ef          	jal	6310 <memset>
    54f0:	00892023          	sw	s0,0(s2)
    54f4:	00040913          	mv	s2,s0
    54f8:	f25ff06f          	j	541c <__sfp+0x34>
